
coremark_427.elf:     file format elf32-littlearm


Disassembly of section .text:

080001ac <__do_global_dtors_aux>:
 80001ac:	b510      	push	{r4, lr}
 80001ae:	4c05      	ldr	r4, [pc, #20]	; (80001c4 <__do_global_dtors_aux+0x18>)
 80001b0:	7823      	ldrb	r3, [r4, #0]
 80001b2:	b933      	cbnz	r3, 80001c2 <__do_global_dtors_aux+0x16>
 80001b4:	4b04      	ldr	r3, [pc, #16]	; (80001c8 <__do_global_dtors_aux+0x1c>)
 80001b6:	b113      	cbz	r3, 80001be <__do_global_dtors_aux+0x12>
 80001b8:	4804      	ldr	r0, [pc, #16]	; (80001cc <__do_global_dtors_aux+0x20>)
 80001ba:	f3af 8000 	nop.w
 80001be:	2301      	movs	r3, #1
 80001c0:	7023      	strb	r3, [r4, #0]
 80001c2:	bd10      	pop	{r4, pc}
 80001c4:	2000000c 	.word	0x2000000c
 80001c8:	00000000 	.word	0x00000000
 80001cc:	08001f7c 	.word	0x08001f7c

080001d0 <frame_dummy>:
 80001d0:	b508      	push	{r3, lr}
 80001d2:	4b03      	ldr	r3, [pc, #12]	; (80001e0 <frame_dummy+0x10>)
 80001d4:	b11b      	cbz	r3, 80001de <frame_dummy+0xe>
 80001d6:	4903      	ldr	r1, [pc, #12]	; (80001e4 <frame_dummy+0x14>)
 80001d8:	4803      	ldr	r0, [pc, #12]	; (80001e8 <frame_dummy+0x18>)
 80001da:	f3af 8000 	nop.w
 80001de:	bd08      	pop	{r3, pc}
 80001e0:	00000000 	.word	0x00000000
 80001e4:	20000010 	.word	0x20000010
 80001e8:	08001f7c 	.word	0x08001f7c

080001ec <__aeabi_uldivmod>:
 80001ec:	b953      	cbnz	r3, 8000204 <__aeabi_uldivmod+0x18>
 80001ee:	b94a      	cbnz	r2, 8000204 <__aeabi_uldivmod+0x18>
 80001f0:	2900      	cmp	r1, #0
 80001f2:	bf08      	it	eq
 80001f4:	2800      	cmpeq	r0, #0
 80001f6:	bf1c      	itt	ne
 80001f8:	f04f 31ff 	movne.w	r1, #4294967295	; 0xffffffff
 80001fc:	f04f 30ff 	movne.w	r0, #4294967295	; 0xffffffff
 8000200:	f000 b96a 	b.w	80004d8 <__aeabi_idiv0>
 8000204:	f1ad 0c08 	sub.w	ip, sp, #8
 8000208:	e96d ce04 	strd	ip, lr, [sp, #-16]!
 800020c:	f000 f806 	bl	800021c <__udivmoddi4>
 8000210:	f8dd e004 	ldr.w	lr, [sp, #4]
 8000214:	e9dd 2302 	ldrd	r2, r3, [sp, #8]
 8000218:	b004      	add	sp, #16
 800021a:	4770      	bx	lr

0800021c <__udivmoddi4>:
 800021c:	e92d 47f0 	stmdb	sp!, {r4, r5, r6, r7, r8, r9, sl, lr}
 8000220:	9d08      	ldr	r5, [sp, #32]
 8000222:	460c      	mov	r4, r1
 8000224:	2b00      	cmp	r3, #0
 8000226:	d14e      	bne.n	80002c6 <__udivmoddi4+0xaa>
 8000228:	4694      	mov	ip, r2
 800022a:	458c      	cmp	ip, r1
 800022c:	4686      	mov	lr, r0
 800022e:	fab2 f282 	clz	r2, r2
 8000232:	d962      	bls.n	80002fa <__udivmoddi4+0xde>
 8000234:	b14a      	cbz	r2, 800024a <__udivmoddi4+0x2e>
 8000236:	f1c2 0320 	rsb	r3, r2, #32
 800023a:	4091      	lsls	r1, r2
 800023c:	fa20 f303 	lsr.w	r3, r0, r3
 8000240:	fa0c fc02 	lsl.w	ip, ip, r2
 8000244:	4319      	orrs	r1, r3
 8000246:	fa00 fe02 	lsl.w	lr, r0, r2
 800024a:	ea4f 471c 	mov.w	r7, ip, lsr #16
 800024e:	fa1f f68c 	uxth.w	r6, ip
 8000252:	fbb1 f4f7 	udiv	r4, r1, r7
 8000256:	ea4f 431e 	mov.w	r3, lr, lsr #16
 800025a:	fb07 1114 	mls	r1, r7, r4, r1
 800025e:	ea43 4301 	orr.w	r3, r3, r1, lsl #16
 8000262:	fb04 f106 	mul.w	r1, r4, r6
 8000266:	4299      	cmp	r1, r3
 8000268:	d90a      	bls.n	8000280 <__udivmoddi4+0x64>
 800026a:	eb1c 0303 	adds.w	r3, ip, r3
 800026e:	f104 30ff 	add.w	r0, r4, #4294967295	; 0xffffffff
 8000272:	f080 8112 	bcs.w	800049a <__udivmoddi4+0x27e>
 8000276:	4299      	cmp	r1, r3
 8000278:	f240 810f 	bls.w	800049a <__udivmoddi4+0x27e>
 800027c:	3c02      	subs	r4, #2
 800027e:	4463      	add	r3, ip
 8000280:	1a59      	subs	r1, r3, r1
 8000282:	fa1f f38e 	uxth.w	r3, lr
 8000286:	fbb1 f0f7 	udiv	r0, r1, r7
 800028a:	fb07 1110 	mls	r1, r7, r0, r1
 800028e:	ea43 4301 	orr.w	r3, r3, r1, lsl #16
 8000292:	fb00 f606 	mul.w	r6, r0, r6
 8000296:	429e      	cmp	r6, r3
 8000298:	d90a      	bls.n	80002b0 <__udivmoddi4+0x94>
 800029a:	eb1c 0303 	adds.w	r3, ip, r3
 800029e:	f100 31ff 	add.w	r1, r0, #4294967295	; 0xffffffff
 80002a2:	f080 80fc 	bcs.w	800049e <__udivmoddi4+0x282>
 80002a6:	429e      	cmp	r6, r3
 80002a8:	f240 80f9 	bls.w	800049e <__udivmoddi4+0x282>
 80002ac:	4463      	add	r3, ip
 80002ae:	3802      	subs	r0, #2
 80002b0:	1b9b      	subs	r3, r3, r6
 80002b2:	ea40 4004 	orr.w	r0, r0, r4, lsl #16
 80002b6:	2100      	movs	r1, #0
 80002b8:	b11d      	cbz	r5, 80002c2 <__udivmoddi4+0xa6>
 80002ba:	40d3      	lsrs	r3, r2
 80002bc:	2200      	movs	r2, #0
 80002be:	e9c5 3200 	strd	r3, r2, [r5]
 80002c2:	e8bd 87f0 	ldmia.w	sp!, {r4, r5, r6, r7, r8, r9, sl, pc}
 80002c6:	428b      	cmp	r3, r1
 80002c8:	d905      	bls.n	80002d6 <__udivmoddi4+0xba>
 80002ca:	b10d      	cbz	r5, 80002d0 <__udivmoddi4+0xb4>
 80002cc:	e9c5 0100 	strd	r0, r1, [r5]
 80002d0:	2100      	movs	r1, #0
 80002d2:	4608      	mov	r0, r1
 80002d4:	e7f5      	b.n	80002c2 <__udivmoddi4+0xa6>
 80002d6:	fab3 f183 	clz	r1, r3
 80002da:	2900      	cmp	r1, #0
 80002dc:	d146      	bne.n	800036c <__udivmoddi4+0x150>
 80002de:	42a3      	cmp	r3, r4
 80002e0:	d302      	bcc.n	80002e8 <__udivmoddi4+0xcc>
 80002e2:	4290      	cmp	r0, r2
 80002e4:	f0c0 80f0 	bcc.w	80004c8 <__udivmoddi4+0x2ac>
 80002e8:	1a86      	subs	r6, r0, r2
 80002ea:	eb64 0303 	sbc.w	r3, r4, r3
 80002ee:	2001      	movs	r0, #1
 80002f0:	2d00      	cmp	r5, #0
 80002f2:	d0e6      	beq.n	80002c2 <__udivmoddi4+0xa6>
 80002f4:	e9c5 6300 	strd	r6, r3, [r5]
 80002f8:	e7e3      	b.n	80002c2 <__udivmoddi4+0xa6>
 80002fa:	2a00      	cmp	r2, #0
 80002fc:	f040 8090 	bne.w	8000420 <__udivmoddi4+0x204>
 8000300:	eba1 040c 	sub.w	r4, r1, ip
 8000304:	ea4f 481c 	mov.w	r8, ip, lsr #16
 8000308:	fa1f f78c 	uxth.w	r7, ip
 800030c:	2101      	movs	r1, #1
 800030e:	fbb4 f6f8 	udiv	r6, r4, r8
 8000312:	ea4f 431e 	mov.w	r3, lr, lsr #16
 8000316:	fb08 4416 	mls	r4, r8, r6, r4
 800031a:	ea43 4304 	orr.w	r3, r3, r4, lsl #16
 800031e:	fb07 f006 	mul.w	r0, r7, r6
 8000322:	4298      	cmp	r0, r3
 8000324:	d908      	bls.n	8000338 <__udivmoddi4+0x11c>
 8000326:	eb1c 0303 	adds.w	r3, ip, r3
 800032a:	f106 34ff 	add.w	r4, r6, #4294967295	; 0xffffffff
 800032e:	d202      	bcs.n	8000336 <__udivmoddi4+0x11a>
 8000330:	4298      	cmp	r0, r3
 8000332:	f200 80cd 	bhi.w	80004d0 <__udivmoddi4+0x2b4>
 8000336:	4626      	mov	r6, r4
 8000338:	1a1c      	subs	r4, r3, r0
 800033a:	fa1f f38e 	uxth.w	r3, lr
 800033e:	fbb4 f0f8 	udiv	r0, r4, r8
 8000342:	fb08 4410 	mls	r4, r8, r0, r4
 8000346:	ea43 4304 	orr.w	r3, r3, r4, lsl #16
 800034a:	fb00 f707 	mul.w	r7, r0, r7
 800034e:	429f      	cmp	r7, r3
 8000350:	d908      	bls.n	8000364 <__udivmoddi4+0x148>
 8000352:	eb1c 0303 	adds.w	r3, ip, r3
 8000356:	f100 34ff 	add.w	r4, r0, #4294967295	; 0xffffffff
 800035a:	d202      	bcs.n	8000362 <__udivmoddi4+0x146>
 800035c:	429f      	cmp	r7, r3
 800035e:	f200 80b0 	bhi.w	80004c2 <__udivmoddi4+0x2a6>
 8000362:	4620      	mov	r0, r4
 8000364:	1bdb      	subs	r3, r3, r7
 8000366:	ea40 4006 	orr.w	r0, r0, r6, lsl #16
 800036a:	e7a5      	b.n	80002b8 <__udivmoddi4+0x9c>
 800036c:	f1c1 0620 	rsb	r6, r1, #32
 8000370:	408b      	lsls	r3, r1
 8000372:	fa22 f706 	lsr.w	r7, r2, r6
 8000376:	431f      	orrs	r7, r3
 8000378:	fa20 fc06 	lsr.w	ip, r0, r6
 800037c:	fa04 f301 	lsl.w	r3, r4, r1
 8000380:	ea43 030c 	orr.w	r3, r3, ip
 8000384:	40f4      	lsrs	r4, r6
 8000386:	fa00 f801 	lsl.w	r8, r0, r1
 800038a:	0c38      	lsrs	r0, r7, #16
 800038c:	ea4f 4913 	mov.w	r9, r3, lsr #16
 8000390:	fbb4 fef0 	udiv	lr, r4, r0
 8000394:	fa1f fc87 	uxth.w	ip, r7
 8000398:	fb00 441e 	mls	r4, r0, lr, r4
 800039c:	ea49 4404 	orr.w	r4, r9, r4, lsl #16
 80003a0:	fb0e f90c 	mul.w	r9, lr, ip
 80003a4:	45a1      	cmp	r9, r4
 80003a6:	fa02 f201 	lsl.w	r2, r2, r1
 80003aa:	d90a      	bls.n	80003c2 <__udivmoddi4+0x1a6>
 80003ac:	193c      	adds	r4, r7, r4
 80003ae:	f10e 3aff 	add.w	sl, lr, #4294967295	; 0xffffffff
 80003b2:	f080 8084 	bcs.w	80004be <__udivmoddi4+0x2a2>
 80003b6:	45a1      	cmp	r9, r4
 80003b8:	f240 8081 	bls.w	80004be <__udivmoddi4+0x2a2>
 80003bc:	f1ae 0e02 	sub.w	lr, lr, #2
 80003c0:	443c      	add	r4, r7
 80003c2:	eba4 0409 	sub.w	r4, r4, r9
 80003c6:	fa1f f983 	uxth.w	r9, r3
 80003ca:	fbb4 f3f0 	udiv	r3, r4, r0
 80003ce:	fb00 4413 	mls	r4, r0, r3, r4
 80003d2:	ea49 4404 	orr.w	r4, r9, r4, lsl #16
 80003d6:	fb03 fc0c 	mul.w	ip, r3, ip
 80003da:	45a4      	cmp	ip, r4
 80003dc:	d907      	bls.n	80003ee <__udivmoddi4+0x1d2>
 80003de:	193c      	adds	r4, r7, r4
 80003e0:	f103 30ff 	add.w	r0, r3, #4294967295	; 0xffffffff
 80003e4:	d267      	bcs.n	80004b6 <__udivmoddi4+0x29a>
 80003e6:	45a4      	cmp	ip, r4
 80003e8:	d965      	bls.n	80004b6 <__udivmoddi4+0x29a>
 80003ea:	3b02      	subs	r3, #2
 80003ec:	443c      	add	r4, r7
 80003ee:	ea43 400e 	orr.w	r0, r3, lr, lsl #16
 80003f2:	fba0 9302 	umull	r9, r3, r0, r2
 80003f6:	eba4 040c 	sub.w	r4, r4, ip
 80003fa:	429c      	cmp	r4, r3
 80003fc:	46ce      	mov	lr, r9
 80003fe:	469c      	mov	ip, r3
 8000400:	d351      	bcc.n	80004a6 <__udivmoddi4+0x28a>
 8000402:	d04e      	beq.n	80004a2 <__udivmoddi4+0x286>
 8000404:	b155      	cbz	r5, 800041c <__udivmoddi4+0x200>
 8000406:	ebb8 030e 	subs.w	r3, r8, lr
 800040a:	eb64 040c 	sbc.w	r4, r4, ip
 800040e:	fa04 f606 	lsl.w	r6, r4, r6
 8000412:	40cb      	lsrs	r3, r1
 8000414:	431e      	orrs	r6, r3
 8000416:	40cc      	lsrs	r4, r1
 8000418:	e9c5 6400 	strd	r6, r4, [r5]
 800041c:	2100      	movs	r1, #0
 800041e:	e750      	b.n	80002c2 <__udivmoddi4+0xa6>
 8000420:	f1c2 0320 	rsb	r3, r2, #32
 8000424:	fa20 f103 	lsr.w	r1, r0, r3
 8000428:	fa0c fc02 	lsl.w	ip, ip, r2
 800042c:	fa24 f303 	lsr.w	r3, r4, r3
 8000430:	4094      	lsls	r4, r2
 8000432:	430c      	orrs	r4, r1
 8000434:	ea4f 481c 	mov.w	r8, ip, lsr #16
 8000438:	fa00 fe02 	lsl.w	lr, r0, r2
 800043c:	fa1f f78c 	uxth.w	r7, ip
 8000440:	fbb3 f0f8 	udiv	r0, r3, r8
 8000444:	fb08 3110 	mls	r1, r8, r0, r3
 8000448:	0c23      	lsrs	r3, r4, #16
 800044a:	ea43 4301 	orr.w	r3, r3, r1, lsl #16
 800044e:	fb00 f107 	mul.w	r1, r0, r7
 8000452:	4299      	cmp	r1, r3
 8000454:	d908      	bls.n	8000468 <__udivmoddi4+0x24c>
 8000456:	eb1c 0303 	adds.w	r3, ip, r3
 800045a:	f100 36ff 	add.w	r6, r0, #4294967295	; 0xffffffff
 800045e:	d22c      	bcs.n	80004ba <__udivmoddi4+0x29e>
 8000460:	4299      	cmp	r1, r3
 8000462:	d92a      	bls.n	80004ba <__udivmoddi4+0x29e>
 8000464:	3802      	subs	r0, #2
 8000466:	4463      	add	r3, ip
 8000468:	1a5b      	subs	r3, r3, r1
 800046a:	b2a4      	uxth	r4, r4
 800046c:	fbb3 f1f8 	udiv	r1, r3, r8
 8000470:	fb08 3311 	mls	r3, r8, r1, r3
 8000474:	ea44 4403 	orr.w	r4, r4, r3, lsl #16
 8000478:	fb01 f307 	mul.w	r3, r1, r7
 800047c:	42a3      	cmp	r3, r4
 800047e:	d908      	bls.n	8000492 <__udivmoddi4+0x276>
 8000480:	eb1c 0404 	adds.w	r4, ip, r4
 8000484:	f101 36ff 	add.w	r6, r1, #4294967295	; 0xffffffff
 8000488:	d213      	bcs.n	80004b2 <__udivmoddi4+0x296>
 800048a:	42a3      	cmp	r3, r4
 800048c:	d911      	bls.n	80004b2 <__udivmoddi4+0x296>
 800048e:	3902      	subs	r1, #2
 8000490:	4464      	add	r4, ip
 8000492:	1ae4      	subs	r4, r4, r3
 8000494:	ea41 4100 	orr.w	r1, r1, r0, lsl #16
 8000498:	e739      	b.n	800030e <__udivmoddi4+0xf2>
 800049a:	4604      	mov	r4, r0
 800049c:	e6f0      	b.n	8000280 <__udivmoddi4+0x64>
 800049e:	4608      	mov	r0, r1
 80004a0:	e706      	b.n	80002b0 <__udivmoddi4+0x94>
 80004a2:	45c8      	cmp	r8, r9
 80004a4:	d2ae      	bcs.n	8000404 <__udivmoddi4+0x1e8>
 80004a6:	ebb9 0e02 	subs.w	lr, r9, r2
 80004aa:	eb63 0c07 	sbc.w	ip, r3, r7
 80004ae:	3801      	subs	r0, #1
 80004b0:	e7a8      	b.n	8000404 <__udivmoddi4+0x1e8>
 80004b2:	4631      	mov	r1, r6
 80004b4:	e7ed      	b.n	8000492 <__udivmoddi4+0x276>
 80004b6:	4603      	mov	r3, r0
 80004b8:	e799      	b.n	80003ee <__udivmoddi4+0x1d2>
 80004ba:	4630      	mov	r0, r6
 80004bc:	e7d4      	b.n	8000468 <__udivmoddi4+0x24c>
 80004be:	46d6      	mov	lr, sl
 80004c0:	e77f      	b.n	80003c2 <__udivmoddi4+0x1a6>
 80004c2:	4463      	add	r3, ip
 80004c4:	3802      	subs	r0, #2
 80004c6:	e74d      	b.n	8000364 <__udivmoddi4+0x148>
 80004c8:	4606      	mov	r6, r0
 80004ca:	4623      	mov	r3, r4
 80004cc:	4608      	mov	r0, r1
 80004ce:	e70f      	b.n	80002f0 <__udivmoddi4+0xd4>
 80004d0:	3e02      	subs	r6, #2
 80004d2:	4463      	add	r3, ip
 80004d4:	e730      	b.n	8000338 <__udivmoddi4+0x11c>
 80004d6:	bf00      	nop

080004d8 <__aeabi_idiv0>:
 80004d8:	4770      	bx	lr
 80004da:	bf00      	nop

080004dc <MX_GPIO_Init>:
 80004dc:	b480      	push	{r7}
 80004de:	b083      	sub	sp, #12
 80004e0:	af00      	add	r7, sp, #0
 80004e2:	2300      	movs	r3, #0
 80004e4:	607b      	str	r3, [r7, #4]
 80004e6:	4b10      	ldr	r3, [pc, #64]	; (8000528 <MX_GPIO_Init+0x4c>)
 80004e8:	6b1b      	ldr	r3, [r3, #48]	; 0x30
 80004ea:	4a0f      	ldr	r2, [pc, #60]	; (8000528 <MX_GPIO_Init+0x4c>)
 80004ec:	f043 0301 	orr.w	r3, r3, #1
 80004f0:	6313      	str	r3, [r2, #48]	; 0x30
 80004f2:	4b0d      	ldr	r3, [pc, #52]	; (8000528 <MX_GPIO_Init+0x4c>)
 80004f4:	6b1b      	ldr	r3, [r3, #48]	; 0x30
 80004f6:	f003 0301 	and.w	r3, r3, #1
 80004fa:	607b      	str	r3, [r7, #4]
 80004fc:	687b      	ldr	r3, [r7, #4]
 80004fe:	2300      	movs	r3, #0
 8000500:	603b      	str	r3, [r7, #0]
 8000502:	4b09      	ldr	r3, [pc, #36]	; (8000528 <MX_GPIO_Init+0x4c>)
 8000504:	6b1b      	ldr	r3, [r3, #48]	; 0x30
 8000506:	4a08      	ldr	r2, [pc, #32]	; (8000528 <MX_GPIO_Init+0x4c>)
 8000508:	f043 0302 	orr.w	r3, r3, #2
 800050c:	6313      	str	r3, [r2, #48]	; 0x30
 800050e:	4b06      	ldr	r3, [pc, #24]	; (8000528 <MX_GPIO_Init+0x4c>)
 8000510:	6b1b      	ldr	r3, [r3, #48]	; 0x30
 8000512:	f003 0302 	and.w	r3, r3, #2
 8000516:	603b      	str	r3, [r7, #0]
 8000518:	683b      	ldr	r3, [r7, #0]
 800051a:	bf00      	nop
 800051c:	370c      	adds	r7, #12
 800051e:	46bd      	mov	sp, r7
 8000520:	f85d 7b04 	ldr.w	r7, [sp], #4
 8000524:	4770      	bx	lr
 8000526:	bf00      	nop
 8000528:	40023800 	.word	0x40023800

0800052c <main>:
 800052c:	b590      	push	{r4, r7, lr}
 800052e:	b085      	sub	sp, #20
 8000530:	af00      	add	r7, sp, #0
 8000532:	f000 f98f 	bl	8000854 <HAL_Init>
 8000536:	f000 f815 	bl	8000564 <SystemClock_Config>
 800053a:	f7ff ffcf 	bl	80004dc <MX_GPIO_Init>
 800053e:	f000 f8ed 	bl	800071c <MX_USART1_UART_Init>
 8000542:	4b06      	ldr	r3, [pc, #24]	; (800055c <main+0x30>)
 8000544:	463c      	mov	r4, r7
 8000546:	cb0f      	ldmia	r3, {r0, r1, r2, r3}
 8000548:	c407      	stmia	r4!, {r0, r1, r2}
 800054a:	8023      	strh	r3, [r4, #0]
 800054c:	4639      	mov	r1, r7
 800054e:	f64f 73ff 	movw	r3, #65535	; 0xffff
 8000552:	220e      	movs	r2, #14
 8000554:	4802      	ldr	r0, [pc, #8]	; (8000560 <main+0x34>)
 8000556:	f001 f929 	bl	80017ac <HAL_UART_Transmit>
 800055a:	e7f7      	b.n	800054c <main+0x20>
 800055c:	08001f94 	.word	0x08001f94
 8000560:	20000028 	.word	0x20000028

08000564 <SystemClock_Config>:
 8000564:	b580      	push	{r7, lr}
 8000566:	b094      	sub	sp, #80	; 0x50
 8000568:	af00      	add	r7, sp, #0
 800056a:	f107 0320 	add.w	r3, r7, #32
 800056e:	2230      	movs	r2, #48	; 0x30
 8000570:	2100      	movs	r1, #0
 8000572:	4618      	mov	r0, r3
 8000574:	f001 fcd6 	bl	8001f24 <memset>
 8000578:	f107 030c 	add.w	r3, r7, #12
 800057c:	2200      	movs	r2, #0
 800057e:	601a      	str	r2, [r3, #0]
 8000580:	605a      	str	r2, [r3, #4]
 8000582:	609a      	str	r2, [r3, #8]
 8000584:	60da      	str	r2, [r3, #12]
 8000586:	611a      	str	r2, [r3, #16]
 8000588:	2300      	movs	r3, #0
 800058a:	60bb      	str	r3, [r7, #8]
 800058c:	4b29      	ldr	r3, [pc, #164]	; (8000634 <SystemClock_Config+0xd0>)
 800058e:	6c1b      	ldr	r3, [r3, #64]	; 0x40
 8000590:	4a28      	ldr	r2, [pc, #160]	; (8000634 <SystemClock_Config+0xd0>)
 8000592:	f043 5380 	orr.w	r3, r3, #268435456	; 0x10000000
 8000596:	6413      	str	r3, [r2, #64]	; 0x40
 8000598:	4b26      	ldr	r3, [pc, #152]	; (8000634 <SystemClock_Config+0xd0>)
 800059a:	6c1b      	ldr	r3, [r3, #64]	; 0x40
 800059c:	f003 5380 	and.w	r3, r3, #268435456	; 0x10000000
 80005a0:	60bb      	str	r3, [r7, #8]
 80005a2:	68bb      	ldr	r3, [r7, #8]
 80005a4:	2300      	movs	r3, #0
 80005a6:	607b      	str	r3, [r7, #4]
 80005a8:	4b23      	ldr	r3, [pc, #140]	; (8000638 <SystemClock_Config+0xd4>)
 80005aa:	681b      	ldr	r3, [r3, #0]
 80005ac:	f423 4340 	bic.w	r3, r3, #49152	; 0xc000
 80005b0:	4a21      	ldr	r2, [pc, #132]	; (8000638 <SystemClock_Config+0xd4>)
 80005b2:	f443 4380 	orr.w	r3, r3, #16384	; 0x4000
 80005b6:	6013      	str	r3, [r2, #0]
 80005b8:	4b1f      	ldr	r3, [pc, #124]	; (8000638 <SystemClock_Config+0xd4>)
 80005ba:	681b      	ldr	r3, [r3, #0]
 80005bc:	f403 4340 	and.w	r3, r3, #49152	; 0xc000
 80005c0:	607b      	str	r3, [r7, #4]
 80005c2:	687b      	ldr	r3, [r7, #4]
 80005c4:	2302      	movs	r3, #2
 80005c6:	623b      	str	r3, [r7, #32]
 80005c8:	2301      	movs	r3, #1
 80005ca:	62fb      	str	r3, [r7, #44]	; 0x2c
 80005cc:	2310      	movs	r3, #16
 80005ce:	633b      	str	r3, [r7, #48]	; 0x30
 80005d0:	2302      	movs	r3, #2
 80005d2:	63bb      	str	r3, [r7, #56]	; 0x38
 80005d4:	2300      	movs	r3, #0
 80005d6:	63fb      	str	r3, [r7, #60]	; 0x3c
 80005d8:	2308      	movs	r3, #8
 80005da:	643b      	str	r3, [r7, #64]	; 0x40
 80005dc:	2364      	movs	r3, #100	; 0x64
 80005de:	647b      	str	r3, [r7, #68]	; 0x44
 80005e0:	2302      	movs	r3, #2
 80005e2:	64bb      	str	r3, [r7, #72]	; 0x48
 80005e4:	2304      	movs	r3, #4
 80005e6:	64fb      	str	r3, [r7, #76]	; 0x4c
 80005e8:	f107 0320 	add.w	r3, r7, #32
 80005ec:	4618      	mov	r0, r3
 80005ee:	f000 fc35 	bl	8000e5c <HAL_RCC_OscConfig>
 80005f2:	4603      	mov	r3, r0
 80005f4:	2b00      	cmp	r3, #0
 80005f6:	d001      	beq.n	80005fc <SystemClock_Config+0x98>
 80005f8:	f000 f820 	bl	800063c <Error_Handler>
 80005fc:	230f      	movs	r3, #15
 80005fe:	60fb      	str	r3, [r7, #12]
 8000600:	2302      	movs	r3, #2
 8000602:	613b      	str	r3, [r7, #16]
 8000604:	2300      	movs	r3, #0
 8000606:	617b      	str	r3, [r7, #20]
 8000608:	f44f 53a0 	mov.w	r3, #5120	; 0x1400
 800060c:	61bb      	str	r3, [r7, #24]
 800060e:	f44f 5380 	mov.w	r3, #4096	; 0x1000
 8000612:	61fb      	str	r3, [r7, #28]
 8000614:	f107 030c 	add.w	r3, r7, #12
 8000618:	2103      	movs	r1, #3
 800061a:	4618      	mov	r0, r3
 800061c:	f000 fe96 	bl	800134c <HAL_RCC_ClockConfig>
 8000620:	4603      	mov	r3, r0
 8000622:	2b00      	cmp	r3, #0
 8000624:	d001      	beq.n	800062a <SystemClock_Config+0xc6>
 8000626:	f000 f809 	bl	800063c <Error_Handler>
 800062a:	bf00      	nop
 800062c:	3750      	adds	r7, #80	; 0x50
 800062e:	46bd      	mov	sp, r7
 8000630:	bd80      	pop	{r7, pc}
 8000632:	bf00      	nop
 8000634:	40023800 	.word	0x40023800
 8000638:	40007000 	.word	0x40007000

0800063c <Error_Handler>:
 800063c:	b480      	push	{r7}
 800063e:	af00      	add	r7, sp, #0
 8000640:	b672      	cpsid	i
 8000642:	bf00      	nop
 8000644:	bf00      	nop
 8000646:	e7fd      	b.n	8000644 <Error_Handler+0x8>

08000648 <HAL_MspInit>:
 8000648:	b480      	push	{r7}
 800064a:	b083      	sub	sp, #12
 800064c:	af00      	add	r7, sp, #0
 800064e:	2300      	movs	r3, #0
 8000650:	607b      	str	r3, [r7, #4]
 8000652:	4b10      	ldr	r3, [pc, #64]	; (8000694 <HAL_MspInit+0x4c>)
 8000654:	6c5b      	ldr	r3, [r3, #68]	; 0x44
 8000656:	4a0f      	ldr	r2, [pc, #60]	; (8000694 <HAL_MspInit+0x4c>)
 8000658:	f443 4380 	orr.w	r3, r3, #16384	; 0x4000
 800065c:	6453      	str	r3, [r2, #68]	; 0x44
 800065e:	4b0d      	ldr	r3, [pc, #52]	; (8000694 <HAL_MspInit+0x4c>)
 8000660:	6c5b      	ldr	r3, [r3, #68]	; 0x44
 8000662:	f403 4380 	and.w	r3, r3, #16384	; 0x4000
 8000666:	607b      	str	r3, [r7, #4]
 8000668:	687b      	ldr	r3, [r7, #4]
 800066a:	2300      	movs	r3, #0
 800066c:	603b      	str	r3, [r7, #0]
 800066e:	4b09      	ldr	r3, [pc, #36]	; (8000694 <HAL_MspInit+0x4c>)
 8000670:	6c1b      	ldr	r3, [r3, #64]	; 0x40
 8000672:	4a08      	ldr	r2, [pc, #32]	; (8000694 <HAL_MspInit+0x4c>)
 8000674:	f043 5380 	orr.w	r3, r3, #268435456	; 0x10000000
 8000678:	6413      	str	r3, [r2, #64]	; 0x40
 800067a:	4b06      	ldr	r3, [pc, #24]	; (8000694 <HAL_MspInit+0x4c>)
 800067c:	6c1b      	ldr	r3, [r3, #64]	; 0x40
 800067e:	f003 5380 	and.w	r3, r3, #268435456	; 0x10000000
 8000682:	603b      	str	r3, [r7, #0]
 8000684:	683b      	ldr	r3, [r7, #0]
 8000686:	bf00      	nop
 8000688:	370c      	adds	r7, #12
 800068a:	46bd      	mov	sp, r7
 800068c:	f85d 7b04 	ldr.w	r7, [sp], #4
 8000690:	4770      	bx	lr
 8000692:	bf00      	nop
 8000694:	40023800 	.word	0x40023800

08000698 <NMI_Handler>:
 8000698:	b480      	push	{r7}
 800069a:	af00      	add	r7, sp, #0
 800069c:	bf00      	nop
 800069e:	e7fd      	b.n	800069c <NMI_Handler+0x4>

080006a0 <HardFault_Handler>:
 80006a0:	b480      	push	{r7}
 80006a2:	af00      	add	r7, sp, #0
 80006a4:	bf00      	nop
 80006a6:	e7fd      	b.n	80006a4 <HardFault_Handler+0x4>

080006a8 <MemManage_Handler>:
 80006a8:	b480      	push	{r7}
 80006aa:	af00      	add	r7, sp, #0
 80006ac:	bf00      	nop
 80006ae:	e7fd      	b.n	80006ac <MemManage_Handler+0x4>

080006b0 <BusFault_Handler>:
 80006b0:	b480      	push	{r7}
 80006b2:	af00      	add	r7, sp, #0
 80006b4:	bf00      	nop
 80006b6:	e7fd      	b.n	80006b4 <BusFault_Handler+0x4>

080006b8 <UsageFault_Handler>:
 80006b8:	b480      	push	{r7}
 80006ba:	af00      	add	r7, sp, #0
 80006bc:	bf00      	nop
 80006be:	e7fd      	b.n	80006bc <UsageFault_Handler+0x4>

080006c0 <SVC_Handler>:
 80006c0:	b480      	push	{r7}
 80006c2:	af00      	add	r7, sp, #0
 80006c4:	bf00      	nop
 80006c6:	46bd      	mov	sp, r7
 80006c8:	f85d 7b04 	ldr.w	r7, [sp], #4
 80006cc:	4770      	bx	lr

080006ce <DebugMon_Handler>:
 80006ce:	b480      	push	{r7}
 80006d0:	af00      	add	r7, sp, #0
 80006d2:	bf00      	nop
 80006d4:	46bd      	mov	sp, r7
 80006d6:	f85d 7b04 	ldr.w	r7, [sp], #4
 80006da:	4770      	bx	lr

080006dc <PendSV_Handler>:
 80006dc:	b480      	push	{r7}
 80006de:	af00      	add	r7, sp, #0
 80006e0:	bf00      	nop
 80006e2:	46bd      	mov	sp, r7
 80006e4:	f85d 7b04 	ldr.w	r7, [sp], #4
 80006e8:	4770      	bx	lr

080006ea <SysTick_Handler>:
 80006ea:	b580      	push	{r7, lr}
 80006ec:	af00      	add	r7, sp, #0
 80006ee:	f000 f903 	bl	80008f8 <HAL_IncTick>
 80006f2:	bf00      	nop
 80006f4:	bd80      	pop	{r7, pc}
	...

080006f8 <SystemInit>:
 80006f8:	b480      	push	{r7}
 80006fa:	af00      	add	r7, sp, #0
 80006fc:	4b06      	ldr	r3, [pc, #24]	; (8000718 <SystemInit+0x20>)
 80006fe:	f8d3 3088 	ldr.w	r3, [r3, #136]	; 0x88
 8000702:	4a05      	ldr	r2, [pc, #20]	; (8000718 <SystemInit+0x20>)
 8000704:	f443 0370 	orr.w	r3, r3, #15728640	; 0xf00000
 8000708:	f8c2 3088 	str.w	r3, [r2, #136]	; 0x88
 800070c:	bf00      	nop
 800070e:	46bd      	mov	sp, r7
 8000710:	f85d 7b04 	ldr.w	r7, [sp], #4
 8000714:	4770      	bx	lr
 8000716:	bf00      	nop
 8000718:	e000ed00 	.word	0xe000ed00

0800071c <MX_USART1_UART_Init>:
 800071c:	b580      	push	{r7, lr}
 800071e:	af00      	add	r7, sp, #0
 8000720:	4b11      	ldr	r3, [pc, #68]	; (8000768 <MX_USART1_UART_Init+0x4c>)
 8000722:	4a12      	ldr	r2, [pc, #72]	; (800076c <MX_USART1_UART_Init+0x50>)
 8000724:	601a      	str	r2, [r3, #0]
 8000726:	4b10      	ldr	r3, [pc, #64]	; (8000768 <MX_USART1_UART_Init+0x4c>)
 8000728:	f44f 32e1 	mov.w	r2, #115200	; 0x1c200
 800072c:	605a      	str	r2, [r3, #4]
 800072e:	4b0e      	ldr	r3, [pc, #56]	; (8000768 <MX_USART1_UART_Init+0x4c>)
 8000730:	2200      	movs	r2, #0
 8000732:	609a      	str	r2, [r3, #8]
 8000734:	4b0c      	ldr	r3, [pc, #48]	; (8000768 <MX_USART1_UART_Init+0x4c>)
 8000736:	2200      	movs	r2, #0
 8000738:	60da      	str	r2, [r3, #12]
 800073a:	4b0b      	ldr	r3, [pc, #44]	; (8000768 <MX_USART1_UART_Init+0x4c>)
 800073c:	2200      	movs	r2, #0
 800073e:	611a      	str	r2, [r3, #16]
 8000740:	4b09      	ldr	r3, [pc, #36]	; (8000768 <MX_USART1_UART_Init+0x4c>)
 8000742:	220c      	movs	r2, #12
 8000744:	615a      	str	r2, [r3, #20]
 8000746:	4b08      	ldr	r3, [pc, #32]	; (8000768 <MX_USART1_UART_Init+0x4c>)
 8000748:	2200      	movs	r2, #0
 800074a:	619a      	str	r2, [r3, #24]
 800074c:	4b06      	ldr	r3, [pc, #24]	; (8000768 <MX_USART1_UART_Init+0x4c>)
 800074e:	2200      	movs	r2, #0
 8000750:	61da      	str	r2, [r3, #28]
 8000752:	4805      	ldr	r0, [pc, #20]	; (8000768 <MX_USART1_UART_Init+0x4c>)
 8000754:	f000 ffda 	bl	800170c <HAL_UART_Init>
 8000758:	4603      	mov	r3, r0
 800075a:	2b00      	cmp	r3, #0
 800075c:	d001      	beq.n	8000762 <MX_USART1_UART_Init+0x46>
 800075e:	f7ff ff6d 	bl	800063c <Error_Handler>
 8000762:	bf00      	nop
 8000764:	bd80      	pop	{r7, pc}
 8000766:	bf00      	nop
 8000768:	20000028 	.word	0x20000028
 800076c:	40011000 	.word	0x40011000

08000770 <HAL_UART_MspInit>:
 8000770:	b580      	push	{r7, lr}
 8000772:	b08a      	sub	sp, #40	; 0x28
 8000774:	af00      	add	r7, sp, #0
 8000776:	6078      	str	r0, [r7, #4]
 8000778:	f107 0314 	add.w	r3, r7, #20
 800077c:	2200      	movs	r2, #0
 800077e:	601a      	str	r2, [r3, #0]
 8000780:	605a      	str	r2, [r3, #4]
 8000782:	609a      	str	r2, [r3, #8]
 8000784:	60da      	str	r2, [r3, #12]
 8000786:	611a      	str	r2, [r3, #16]
 8000788:	687b      	ldr	r3, [r7, #4]
 800078a:	681b      	ldr	r3, [r3, #0]
 800078c:	4a19      	ldr	r2, [pc, #100]	; (80007f4 <HAL_UART_MspInit+0x84>)
 800078e:	4293      	cmp	r3, r2
 8000790:	d12c      	bne.n	80007ec <HAL_UART_MspInit+0x7c>
 8000792:	2300      	movs	r3, #0
 8000794:	613b      	str	r3, [r7, #16]
 8000796:	4b18      	ldr	r3, [pc, #96]	; (80007f8 <HAL_UART_MspInit+0x88>)
 8000798:	6c5b      	ldr	r3, [r3, #68]	; 0x44
 800079a:	4a17      	ldr	r2, [pc, #92]	; (80007f8 <HAL_UART_MspInit+0x88>)
 800079c:	f043 0310 	orr.w	r3, r3, #16
 80007a0:	6453      	str	r3, [r2, #68]	; 0x44
 80007a2:	4b15      	ldr	r3, [pc, #84]	; (80007f8 <HAL_UART_MspInit+0x88>)
 80007a4:	6c5b      	ldr	r3, [r3, #68]	; 0x44
 80007a6:	f003 0310 	and.w	r3, r3, #16
 80007aa:	613b      	str	r3, [r7, #16]
 80007ac:	693b      	ldr	r3, [r7, #16]
 80007ae:	2300      	movs	r3, #0
 80007b0:	60fb      	str	r3, [r7, #12]
 80007b2:	4b11      	ldr	r3, [pc, #68]	; (80007f8 <HAL_UART_MspInit+0x88>)
 80007b4:	6b1b      	ldr	r3, [r3, #48]	; 0x30
 80007b6:	4a10      	ldr	r2, [pc, #64]	; (80007f8 <HAL_UART_MspInit+0x88>)
 80007b8:	f043 0301 	orr.w	r3, r3, #1
 80007bc:	6313      	str	r3, [r2, #48]	; 0x30
 80007be:	4b0e      	ldr	r3, [pc, #56]	; (80007f8 <HAL_UART_MspInit+0x88>)
 80007c0:	6b1b      	ldr	r3, [r3, #48]	; 0x30
 80007c2:	f003 0301 	and.w	r3, r3, #1
 80007c6:	60fb      	str	r3, [r7, #12]
 80007c8:	68fb      	ldr	r3, [r7, #12]
 80007ca:	f44f 63c0 	mov.w	r3, #1536	; 0x600
 80007ce:	617b      	str	r3, [r7, #20]
 80007d0:	2302      	movs	r3, #2
 80007d2:	61bb      	str	r3, [r7, #24]
 80007d4:	2300      	movs	r3, #0
 80007d6:	61fb      	str	r3, [r7, #28]
 80007d8:	2303      	movs	r3, #3
 80007da:	623b      	str	r3, [r7, #32]
 80007dc:	2307      	movs	r3, #7
 80007de:	627b      	str	r3, [r7, #36]	; 0x24
 80007e0:	f107 0314 	add.w	r3, r7, #20
 80007e4:	4619      	mov	r1, r3
 80007e6:	4805      	ldr	r0, [pc, #20]	; (80007fc <HAL_UART_MspInit+0x8c>)
 80007e8:	f000 f98c 	bl	8000b04 <HAL_GPIO_Init>
 80007ec:	bf00      	nop
 80007ee:	3728      	adds	r7, #40	; 0x28
 80007f0:	46bd      	mov	sp, r7
 80007f2:	bd80      	pop	{r7, pc}
 80007f4:	40011000 	.word	0x40011000
 80007f8:	40023800 	.word	0x40023800
 80007fc:	40020000 	.word	0x40020000

08000800 <Reset_Handler>:
 8000800:	f8df d034 	ldr.w	sp, [pc, #52]	; 8000838 <LoopFillZerobss+0xe>
 8000804:	f7ff ff78 	bl	80006f8 <SystemInit>
 8000808:	480c      	ldr	r0, [pc, #48]	; (800083c <LoopFillZerobss+0x12>)
 800080a:	490d      	ldr	r1, [pc, #52]	; (8000840 <LoopFillZerobss+0x16>)
 800080c:	4a0d      	ldr	r2, [pc, #52]	; (8000844 <LoopFillZerobss+0x1a>)
 800080e:	2300      	movs	r3, #0
 8000810:	e002      	b.n	8000818 <LoopCopyDataInit>

08000812 <CopyDataInit>:
 8000812:	58d4      	ldr	r4, [r2, r3]
 8000814:	50c4      	str	r4, [r0, r3]
 8000816:	3304      	adds	r3, #4

08000818 <LoopCopyDataInit>:
 8000818:	18c4      	adds	r4, r0, r3
 800081a:	428c      	cmp	r4, r1
 800081c:	d3f9      	bcc.n	8000812 <CopyDataInit>
 800081e:	4a0a      	ldr	r2, [pc, #40]	; (8000848 <LoopFillZerobss+0x1e>)
 8000820:	4c0a      	ldr	r4, [pc, #40]	; (800084c <LoopFillZerobss+0x22>)
 8000822:	2300      	movs	r3, #0
 8000824:	e001      	b.n	800082a <LoopFillZerobss>

08000826 <FillZerobss>:
 8000826:	6013      	str	r3, [r2, #0]
 8000828:	3204      	adds	r2, #4

0800082a <LoopFillZerobss>:
 800082a:	42a2      	cmp	r2, r4
 800082c:	d3fb      	bcc.n	8000826 <FillZerobss>
 800082e:	f001 fb81 	bl	8001f34 <__libc_init_array>
 8000832:	f7ff fe7b 	bl	800052c <main>
 8000836:	4770      	bx	lr
 8000838:	20030000 	.word	0x20030000
 800083c:	20000000 	.word	0x20000000
 8000840:	2000000c 	.word	0x2000000c
 8000844:	08001fcc 	.word	0x08001fcc
 8000848:	2000000c 	.word	0x2000000c
 800084c:	20000074 	.word	0x20000074

08000850 <ADC_IRQHandler>:
 8000850:	e7fe      	b.n	8000850 <ADC_IRQHandler>
	...

08000854 <HAL_Init>:
 8000854:	b580      	push	{r7, lr}
 8000856:	af00      	add	r7, sp, #0
 8000858:	4b0e      	ldr	r3, [pc, #56]	; (8000894 <HAL_Init+0x40>)
 800085a:	681b      	ldr	r3, [r3, #0]
 800085c:	4a0d      	ldr	r2, [pc, #52]	; (8000894 <HAL_Init+0x40>)
 800085e:	f443 7300 	orr.w	r3, r3, #512	; 0x200
 8000862:	6013      	str	r3, [r2, #0]
 8000864:	4b0b      	ldr	r3, [pc, #44]	; (8000894 <HAL_Init+0x40>)
 8000866:	681b      	ldr	r3, [r3, #0]
 8000868:	4a0a      	ldr	r2, [pc, #40]	; (8000894 <HAL_Init+0x40>)
 800086a:	f443 6380 	orr.w	r3, r3, #1024	; 0x400
 800086e:	6013      	str	r3, [r2, #0]
 8000870:	4b08      	ldr	r3, [pc, #32]	; (8000894 <HAL_Init+0x40>)
 8000872:	681b      	ldr	r3, [r3, #0]
 8000874:	4a07      	ldr	r2, [pc, #28]	; (8000894 <HAL_Init+0x40>)
 8000876:	f443 7380 	orr.w	r3, r3, #256	; 0x100
 800087a:	6013      	str	r3, [r2, #0]
 800087c:	2003      	movs	r0, #3
 800087e:	f000 f90d 	bl	8000a9c <HAL_NVIC_SetPriorityGrouping>
 8000882:	200f      	movs	r0, #15
 8000884:	f000 f808 	bl	8000898 <HAL_InitTick>
 8000888:	f7ff fede 	bl	8000648 <HAL_MspInit>
 800088c:	2300      	movs	r3, #0
 800088e:	4618      	mov	r0, r3
 8000890:	bd80      	pop	{r7, pc}
 8000892:	bf00      	nop
 8000894:	40023c00 	.word	0x40023c00

08000898 <HAL_InitTick>:
 8000898:	b580      	push	{r7, lr}
 800089a:	b082      	sub	sp, #8
 800089c:	af00      	add	r7, sp, #0
 800089e:	6078      	str	r0, [r7, #4]
 80008a0:	4b12      	ldr	r3, [pc, #72]	; (80008ec <HAL_InitTick+0x54>)
 80008a2:	681a      	ldr	r2, [r3, #0]
 80008a4:	4b12      	ldr	r3, [pc, #72]	; (80008f0 <HAL_InitTick+0x58>)
 80008a6:	781b      	ldrb	r3, [r3, #0]
 80008a8:	4619      	mov	r1, r3
 80008aa:	f44f 737a 	mov.w	r3, #1000	; 0x3e8
 80008ae:	fbb3 f3f1 	udiv	r3, r3, r1
 80008b2:	fbb2 f3f3 	udiv	r3, r2, r3
 80008b6:	4618      	mov	r0, r3
 80008b8:	f000 f917 	bl	8000aea <HAL_SYSTICK_Config>
 80008bc:	4603      	mov	r3, r0
 80008be:	2b00      	cmp	r3, #0
 80008c0:	d001      	beq.n	80008c6 <HAL_InitTick+0x2e>
 80008c2:	2301      	movs	r3, #1
 80008c4:	e00e      	b.n	80008e4 <HAL_InitTick+0x4c>
 80008c6:	687b      	ldr	r3, [r7, #4]
 80008c8:	2b0f      	cmp	r3, #15
 80008ca:	d80a      	bhi.n	80008e2 <HAL_InitTick+0x4a>
 80008cc:	2200      	movs	r2, #0
 80008ce:	6879      	ldr	r1, [r7, #4]
 80008d0:	f04f 30ff 	mov.w	r0, #4294967295	; 0xffffffff
 80008d4:	f000 f8ed 	bl	8000ab2 <HAL_NVIC_SetPriority>
 80008d8:	4a06      	ldr	r2, [pc, #24]	; (80008f4 <HAL_InitTick+0x5c>)
 80008da:	687b      	ldr	r3, [r7, #4]
 80008dc:	6013      	str	r3, [r2, #0]
 80008de:	2300      	movs	r3, #0
 80008e0:	e000      	b.n	80008e4 <HAL_InitTick+0x4c>
 80008e2:	2301      	movs	r3, #1
 80008e4:	4618      	mov	r0, r3
 80008e6:	3708      	adds	r7, #8
 80008e8:	46bd      	mov	sp, r7
 80008ea:	bd80      	pop	{r7, pc}
 80008ec:	20000000 	.word	0x20000000
 80008f0:	20000008 	.word	0x20000008
 80008f4:	20000004 	.word	0x20000004

080008f8 <HAL_IncTick>:
 80008f8:	b480      	push	{r7}
 80008fa:	af00      	add	r7, sp, #0
 80008fc:	4b06      	ldr	r3, [pc, #24]	; (8000918 <HAL_IncTick+0x20>)
 80008fe:	781b      	ldrb	r3, [r3, #0]
 8000900:	461a      	mov	r2, r3
 8000902:	4b06      	ldr	r3, [pc, #24]	; (800091c <HAL_IncTick+0x24>)
 8000904:	681b      	ldr	r3, [r3, #0]
 8000906:	4413      	add	r3, r2
 8000908:	4a04      	ldr	r2, [pc, #16]	; (800091c <HAL_IncTick+0x24>)
 800090a:	6013      	str	r3, [r2, #0]
 800090c:	bf00      	nop
 800090e:	46bd      	mov	sp, r7
 8000910:	f85d 7b04 	ldr.w	r7, [sp], #4
 8000914:	4770      	bx	lr
 8000916:	bf00      	nop
 8000918:	20000008 	.word	0x20000008
 800091c:	20000070 	.word	0x20000070

08000920 <HAL_GetTick>:
 8000920:	b480      	push	{r7}
 8000922:	af00      	add	r7, sp, #0
 8000924:	4b03      	ldr	r3, [pc, #12]	; (8000934 <HAL_GetTick+0x14>)
 8000926:	681b      	ldr	r3, [r3, #0]
 8000928:	4618      	mov	r0, r3
 800092a:	46bd      	mov	sp, r7
 800092c:	f85d 7b04 	ldr.w	r7, [sp], #4
 8000930:	4770      	bx	lr
 8000932:	bf00      	nop
 8000934:	20000070 	.word	0x20000070

08000938 <__NVIC_SetPriorityGrouping>:
 8000938:	b480      	push	{r7}
 800093a:	b085      	sub	sp, #20
 800093c:	af00      	add	r7, sp, #0
 800093e:	6078      	str	r0, [r7, #4]
 8000940:	687b      	ldr	r3, [r7, #4]
 8000942:	f003 0307 	and.w	r3, r3, #7
 8000946:	60fb      	str	r3, [r7, #12]
 8000948:	4b0c      	ldr	r3, [pc, #48]	; (800097c <__NVIC_SetPriorityGrouping+0x44>)
 800094a:	68db      	ldr	r3, [r3, #12]
 800094c:	60bb      	str	r3, [r7, #8]
 800094e:	68ba      	ldr	r2, [r7, #8]
 8000950:	f64f 03ff 	movw	r3, #63743	; 0xf8ff
 8000954:	4013      	ands	r3, r2
 8000956:	60bb      	str	r3, [r7, #8]
 8000958:	68fb      	ldr	r3, [r7, #12]
 800095a:	021a      	lsls	r2, r3, #8
 800095c:	68bb      	ldr	r3, [r7, #8]
 800095e:	4313      	orrs	r3, r2
 8000960:	f043 63bf 	orr.w	r3, r3, #100139008	; 0x5f80000
 8000964:	f443 3300 	orr.w	r3, r3, #131072	; 0x20000
 8000968:	60bb      	str	r3, [r7, #8]
 800096a:	4a04      	ldr	r2, [pc, #16]	; (800097c <__NVIC_SetPriorityGrouping+0x44>)
 800096c:	68bb      	ldr	r3, [r7, #8]
 800096e:	60d3      	str	r3, [r2, #12]
 8000970:	bf00      	nop
 8000972:	3714      	adds	r7, #20
 8000974:	46bd      	mov	sp, r7
 8000976:	f85d 7b04 	ldr.w	r7, [sp], #4
 800097a:	4770      	bx	lr
 800097c:	e000ed00 	.word	0xe000ed00

08000980 <__NVIC_GetPriorityGrouping>:
 8000980:	b480      	push	{r7}
 8000982:	af00      	add	r7, sp, #0
 8000984:	4b04      	ldr	r3, [pc, #16]	; (8000998 <__NVIC_GetPriorityGrouping+0x18>)
 8000986:	68db      	ldr	r3, [r3, #12]
 8000988:	0a1b      	lsrs	r3, r3, #8
 800098a:	f003 0307 	and.w	r3, r3, #7
 800098e:	4618      	mov	r0, r3
 8000990:	46bd      	mov	sp, r7
 8000992:	f85d 7b04 	ldr.w	r7, [sp], #4
 8000996:	4770      	bx	lr
 8000998:	e000ed00 	.word	0xe000ed00

0800099c <__NVIC_SetPriority>:
 800099c:	b480      	push	{r7}
 800099e:	b083      	sub	sp, #12
 80009a0:	af00      	add	r7, sp, #0
 80009a2:	4603      	mov	r3, r0
 80009a4:	6039      	str	r1, [r7, #0]
 80009a6:	71fb      	strb	r3, [r7, #7]
 80009a8:	f997 3007 	ldrsb.w	r3, [r7, #7]
 80009ac:	2b00      	cmp	r3, #0
 80009ae:	db0a      	blt.n	80009c6 <__NVIC_SetPriority+0x2a>
 80009b0:	683b      	ldr	r3, [r7, #0]
 80009b2:	b2da      	uxtb	r2, r3
 80009b4:	490c      	ldr	r1, [pc, #48]	; (80009e8 <__NVIC_SetPriority+0x4c>)
 80009b6:	f997 3007 	ldrsb.w	r3, [r7, #7]
 80009ba:	0112      	lsls	r2, r2, #4
 80009bc:	b2d2      	uxtb	r2, r2
 80009be:	440b      	add	r3, r1
 80009c0:	f883 2300 	strb.w	r2, [r3, #768]	; 0x300
 80009c4:	e00a      	b.n	80009dc <__NVIC_SetPriority+0x40>
 80009c6:	683b      	ldr	r3, [r7, #0]
 80009c8:	b2da      	uxtb	r2, r3
 80009ca:	4908      	ldr	r1, [pc, #32]	; (80009ec <__NVIC_SetPriority+0x50>)
 80009cc:	79fb      	ldrb	r3, [r7, #7]
 80009ce:	f003 030f 	and.w	r3, r3, #15
 80009d2:	3b04      	subs	r3, #4
 80009d4:	0112      	lsls	r2, r2, #4
 80009d6:	b2d2      	uxtb	r2, r2
 80009d8:	440b      	add	r3, r1
 80009da:	761a      	strb	r2, [r3, #24]
 80009dc:	bf00      	nop
 80009de:	370c      	adds	r7, #12
 80009e0:	46bd      	mov	sp, r7
 80009e2:	f85d 7b04 	ldr.w	r7, [sp], #4
 80009e6:	4770      	bx	lr
 80009e8:	e000e100 	.word	0xe000e100
 80009ec:	e000ed00 	.word	0xe000ed00

080009f0 <NVIC_EncodePriority>:
 80009f0:	b480      	push	{r7}
 80009f2:	b089      	sub	sp, #36	; 0x24
 80009f4:	af00      	add	r7, sp, #0
 80009f6:	60f8      	str	r0, [r7, #12]
 80009f8:	60b9      	str	r1, [r7, #8]
 80009fa:	607a      	str	r2, [r7, #4]
 80009fc:	68fb      	ldr	r3, [r7, #12]
 80009fe:	f003 0307 	and.w	r3, r3, #7
 8000a02:	61fb      	str	r3, [r7, #28]
 8000a04:	69fb      	ldr	r3, [r7, #28]
 8000a06:	f1c3 0307 	rsb	r3, r3, #7
 8000a0a:	2b04      	cmp	r3, #4
 8000a0c:	bf28      	it	cs
 8000a0e:	2304      	movcs	r3, #4
 8000a10:	61bb      	str	r3, [r7, #24]
 8000a12:	69fb      	ldr	r3, [r7, #28]
 8000a14:	3304      	adds	r3, #4
 8000a16:	2b06      	cmp	r3, #6
 8000a18:	d902      	bls.n	8000a20 <NVIC_EncodePriority+0x30>
 8000a1a:	69fb      	ldr	r3, [r7, #28]
 8000a1c:	3b03      	subs	r3, #3
 8000a1e:	e000      	b.n	8000a22 <NVIC_EncodePriority+0x32>
 8000a20:	2300      	movs	r3, #0
 8000a22:	617b      	str	r3, [r7, #20]
 8000a24:	f04f 32ff 	mov.w	r2, #4294967295	; 0xffffffff
 8000a28:	69bb      	ldr	r3, [r7, #24]
 8000a2a:	fa02 f303 	lsl.w	r3, r2, r3
 8000a2e:	43da      	mvns	r2, r3
 8000a30:	68bb      	ldr	r3, [r7, #8]
 8000a32:	401a      	ands	r2, r3
 8000a34:	697b      	ldr	r3, [r7, #20]
 8000a36:	409a      	lsls	r2, r3
 8000a38:	f04f 31ff 	mov.w	r1, #4294967295	; 0xffffffff
 8000a3c:	697b      	ldr	r3, [r7, #20]
 8000a3e:	fa01 f303 	lsl.w	r3, r1, r3
 8000a42:	43d9      	mvns	r1, r3
 8000a44:	687b      	ldr	r3, [r7, #4]
 8000a46:	400b      	ands	r3, r1
 8000a48:	4313      	orrs	r3, r2
 8000a4a:	4618      	mov	r0, r3
 8000a4c:	3724      	adds	r7, #36	; 0x24
 8000a4e:	46bd      	mov	sp, r7
 8000a50:	f85d 7b04 	ldr.w	r7, [sp], #4
 8000a54:	4770      	bx	lr
	...

08000a58 <SysTick_Config>:
 8000a58:	b580      	push	{r7, lr}
 8000a5a:	b082      	sub	sp, #8
 8000a5c:	af00      	add	r7, sp, #0
 8000a5e:	6078      	str	r0, [r7, #4]
 8000a60:	687b      	ldr	r3, [r7, #4]
 8000a62:	3b01      	subs	r3, #1
 8000a64:	f1b3 7f80 	cmp.w	r3, #16777216	; 0x1000000
 8000a68:	d301      	bcc.n	8000a6e <SysTick_Config+0x16>
 8000a6a:	2301      	movs	r3, #1
 8000a6c:	e00f      	b.n	8000a8e <SysTick_Config+0x36>
 8000a6e:	4a0a      	ldr	r2, [pc, #40]	; (8000a98 <SysTick_Config+0x40>)
 8000a70:	687b      	ldr	r3, [r7, #4]
 8000a72:	3b01      	subs	r3, #1
 8000a74:	6053      	str	r3, [r2, #4]
 8000a76:	210f      	movs	r1, #15
 8000a78:	f04f 30ff 	mov.w	r0, #4294967295	; 0xffffffff
 8000a7c:	f7ff ff8e 	bl	800099c <__NVIC_SetPriority>
 8000a80:	4b05      	ldr	r3, [pc, #20]	; (8000a98 <SysTick_Config+0x40>)
 8000a82:	2200      	movs	r2, #0
 8000a84:	609a      	str	r2, [r3, #8]
 8000a86:	4b04      	ldr	r3, [pc, #16]	; (8000a98 <SysTick_Config+0x40>)
 8000a88:	2207      	movs	r2, #7
 8000a8a:	601a      	str	r2, [r3, #0]
 8000a8c:	2300      	movs	r3, #0
 8000a8e:	4618      	mov	r0, r3
 8000a90:	3708      	adds	r7, #8
 8000a92:	46bd      	mov	sp, r7
 8000a94:	bd80      	pop	{r7, pc}
 8000a96:	bf00      	nop
 8000a98:	e000e010 	.word	0xe000e010

08000a9c <HAL_NVIC_SetPriorityGrouping>:
 8000a9c:	b580      	push	{r7, lr}
 8000a9e:	b082      	sub	sp, #8
 8000aa0:	af00      	add	r7, sp, #0
 8000aa2:	6078      	str	r0, [r7, #4]
 8000aa4:	6878      	ldr	r0, [r7, #4]
 8000aa6:	f7ff ff47 	bl	8000938 <__NVIC_SetPriorityGrouping>
 8000aaa:	bf00      	nop
 8000aac:	3708      	adds	r7, #8
 8000aae:	46bd      	mov	sp, r7
 8000ab0:	bd80      	pop	{r7, pc}

08000ab2 <HAL_NVIC_SetPriority>:
 8000ab2:	b580      	push	{r7, lr}
 8000ab4:	b086      	sub	sp, #24
 8000ab6:	af00      	add	r7, sp, #0
 8000ab8:	4603      	mov	r3, r0
 8000aba:	60b9      	str	r1, [r7, #8]
 8000abc:	607a      	str	r2, [r7, #4]
 8000abe:	73fb      	strb	r3, [r7, #15]
 8000ac0:	2300      	movs	r3, #0
 8000ac2:	617b      	str	r3, [r7, #20]
 8000ac4:	f7ff ff5c 	bl	8000980 <__NVIC_GetPriorityGrouping>
 8000ac8:	6178      	str	r0, [r7, #20]
 8000aca:	687a      	ldr	r2, [r7, #4]
 8000acc:	68b9      	ldr	r1, [r7, #8]
 8000ace:	6978      	ldr	r0, [r7, #20]
 8000ad0:	f7ff ff8e 	bl	80009f0 <NVIC_EncodePriority>
 8000ad4:	4602      	mov	r2, r0
 8000ad6:	f997 300f 	ldrsb.w	r3, [r7, #15]
 8000ada:	4611      	mov	r1, r2
 8000adc:	4618      	mov	r0, r3
 8000ade:	f7ff ff5d 	bl	800099c <__NVIC_SetPriority>
 8000ae2:	bf00      	nop
 8000ae4:	3718      	adds	r7, #24
 8000ae6:	46bd      	mov	sp, r7
 8000ae8:	bd80      	pop	{r7, pc}

08000aea <HAL_SYSTICK_Config>:
 8000aea:	b580      	push	{r7, lr}
 8000aec:	b082      	sub	sp, #8
 8000aee:	af00      	add	r7, sp, #0
 8000af0:	6078      	str	r0, [r7, #4]
 8000af2:	6878      	ldr	r0, [r7, #4]
 8000af4:	f7ff ffb0 	bl	8000a58 <SysTick_Config>
 8000af8:	4603      	mov	r3, r0
 8000afa:	4618      	mov	r0, r3
 8000afc:	3708      	adds	r7, #8
 8000afe:	46bd      	mov	sp, r7
 8000b00:	bd80      	pop	{r7, pc}
	...

08000b04 <HAL_GPIO_Init>:
 8000b04:	b480      	push	{r7}
 8000b06:	b089      	sub	sp, #36	; 0x24
 8000b08:	af00      	add	r7, sp, #0
 8000b0a:	6078      	str	r0, [r7, #4]
 8000b0c:	6039      	str	r1, [r7, #0]
 8000b0e:	2300      	movs	r3, #0
 8000b10:	617b      	str	r3, [r7, #20]
 8000b12:	2300      	movs	r3, #0
 8000b14:	613b      	str	r3, [r7, #16]
 8000b16:	2300      	movs	r3, #0
 8000b18:	61bb      	str	r3, [r7, #24]
 8000b1a:	2300      	movs	r3, #0
 8000b1c:	61fb      	str	r3, [r7, #28]
 8000b1e:	e177      	b.n	8000e10 <HAL_GPIO_Init+0x30c>
 8000b20:	2201      	movs	r2, #1
 8000b22:	69fb      	ldr	r3, [r7, #28]
 8000b24:	fa02 f303 	lsl.w	r3, r2, r3
 8000b28:	617b      	str	r3, [r7, #20]
 8000b2a:	683b      	ldr	r3, [r7, #0]
 8000b2c:	681b      	ldr	r3, [r3, #0]
 8000b2e:	697a      	ldr	r2, [r7, #20]
 8000b30:	4013      	ands	r3, r2
 8000b32:	613b      	str	r3, [r7, #16]
 8000b34:	693a      	ldr	r2, [r7, #16]
 8000b36:	697b      	ldr	r3, [r7, #20]
 8000b38:	429a      	cmp	r2, r3
 8000b3a:	f040 8166 	bne.w	8000e0a <HAL_GPIO_Init+0x306>
 8000b3e:	683b      	ldr	r3, [r7, #0]
 8000b40:	685b      	ldr	r3, [r3, #4]
 8000b42:	f003 0303 	and.w	r3, r3, #3
 8000b46:	2b01      	cmp	r3, #1
 8000b48:	d005      	beq.n	8000b56 <HAL_GPIO_Init+0x52>
 8000b4a:	683b      	ldr	r3, [r7, #0]
 8000b4c:	685b      	ldr	r3, [r3, #4]
 8000b4e:	f003 0303 	and.w	r3, r3, #3
 8000b52:	2b02      	cmp	r3, #2
 8000b54:	d130      	bne.n	8000bb8 <HAL_GPIO_Init+0xb4>
 8000b56:	687b      	ldr	r3, [r7, #4]
 8000b58:	689b      	ldr	r3, [r3, #8]
 8000b5a:	61bb      	str	r3, [r7, #24]
 8000b5c:	69fb      	ldr	r3, [r7, #28]
 8000b5e:	005b      	lsls	r3, r3, #1
 8000b60:	2203      	movs	r2, #3
 8000b62:	fa02 f303 	lsl.w	r3, r2, r3
 8000b66:	43db      	mvns	r3, r3
 8000b68:	69ba      	ldr	r2, [r7, #24]
 8000b6a:	4013      	ands	r3, r2
 8000b6c:	61bb      	str	r3, [r7, #24]
 8000b6e:	683b      	ldr	r3, [r7, #0]
 8000b70:	68da      	ldr	r2, [r3, #12]
 8000b72:	69fb      	ldr	r3, [r7, #28]
 8000b74:	005b      	lsls	r3, r3, #1
 8000b76:	fa02 f303 	lsl.w	r3, r2, r3
 8000b7a:	69ba      	ldr	r2, [r7, #24]
 8000b7c:	4313      	orrs	r3, r2
 8000b7e:	61bb      	str	r3, [r7, #24]
 8000b80:	687b      	ldr	r3, [r7, #4]
 8000b82:	69ba      	ldr	r2, [r7, #24]
 8000b84:	609a      	str	r2, [r3, #8]
 8000b86:	687b      	ldr	r3, [r7, #4]
 8000b88:	685b      	ldr	r3, [r3, #4]
 8000b8a:	61bb      	str	r3, [r7, #24]
 8000b8c:	2201      	movs	r2, #1
 8000b8e:	69fb      	ldr	r3, [r7, #28]
 8000b90:	fa02 f303 	lsl.w	r3, r2, r3
 8000b94:	43db      	mvns	r3, r3
 8000b96:	69ba      	ldr	r2, [r7, #24]
 8000b98:	4013      	ands	r3, r2
 8000b9a:	61bb      	str	r3, [r7, #24]
 8000b9c:	683b      	ldr	r3, [r7, #0]
 8000b9e:	685b      	ldr	r3, [r3, #4]
 8000ba0:	091b      	lsrs	r3, r3, #4
 8000ba2:	f003 0201 	and.w	r2, r3, #1
 8000ba6:	69fb      	ldr	r3, [r7, #28]
 8000ba8:	fa02 f303 	lsl.w	r3, r2, r3
 8000bac:	69ba      	ldr	r2, [r7, #24]
 8000bae:	4313      	orrs	r3, r2
 8000bb0:	61bb      	str	r3, [r7, #24]
 8000bb2:	687b      	ldr	r3, [r7, #4]
 8000bb4:	69ba      	ldr	r2, [r7, #24]
 8000bb6:	605a      	str	r2, [r3, #4]
 8000bb8:	683b      	ldr	r3, [r7, #0]
 8000bba:	685b      	ldr	r3, [r3, #4]
 8000bbc:	f003 0303 	and.w	r3, r3, #3
 8000bc0:	2b03      	cmp	r3, #3
 8000bc2:	d017      	beq.n	8000bf4 <HAL_GPIO_Init+0xf0>
 8000bc4:	687b      	ldr	r3, [r7, #4]
 8000bc6:	68db      	ldr	r3, [r3, #12]
 8000bc8:	61bb      	str	r3, [r7, #24]
 8000bca:	69fb      	ldr	r3, [r7, #28]
 8000bcc:	005b      	lsls	r3, r3, #1
 8000bce:	2203      	movs	r2, #3
 8000bd0:	fa02 f303 	lsl.w	r3, r2, r3
 8000bd4:	43db      	mvns	r3, r3
 8000bd6:	69ba      	ldr	r2, [r7, #24]
 8000bd8:	4013      	ands	r3, r2
 8000bda:	61bb      	str	r3, [r7, #24]
 8000bdc:	683b      	ldr	r3, [r7, #0]
 8000bde:	689a      	ldr	r2, [r3, #8]
 8000be0:	69fb      	ldr	r3, [r7, #28]
 8000be2:	005b      	lsls	r3, r3, #1
 8000be4:	fa02 f303 	lsl.w	r3, r2, r3
 8000be8:	69ba      	ldr	r2, [r7, #24]
 8000bea:	4313      	orrs	r3, r2
 8000bec:	61bb      	str	r3, [r7, #24]
 8000bee:	687b      	ldr	r3, [r7, #4]
 8000bf0:	69ba      	ldr	r2, [r7, #24]
 8000bf2:	60da      	str	r2, [r3, #12]
 8000bf4:	683b      	ldr	r3, [r7, #0]
 8000bf6:	685b      	ldr	r3, [r3, #4]
 8000bf8:	f003 0303 	and.w	r3, r3, #3
 8000bfc:	2b02      	cmp	r3, #2
 8000bfe:	d123      	bne.n	8000c48 <HAL_GPIO_Init+0x144>
 8000c00:	69fb      	ldr	r3, [r7, #28]
 8000c02:	08da      	lsrs	r2, r3, #3
 8000c04:	687b      	ldr	r3, [r7, #4]
 8000c06:	3208      	adds	r2, #8
 8000c08:	f853 3022 	ldr.w	r3, [r3, r2, lsl #2]
 8000c0c:	61bb      	str	r3, [r7, #24]
 8000c0e:	69fb      	ldr	r3, [r7, #28]
 8000c10:	f003 0307 	and.w	r3, r3, #7
 8000c14:	009b      	lsls	r3, r3, #2
 8000c16:	220f      	movs	r2, #15
 8000c18:	fa02 f303 	lsl.w	r3, r2, r3
 8000c1c:	43db      	mvns	r3, r3
 8000c1e:	69ba      	ldr	r2, [r7, #24]
 8000c20:	4013      	ands	r3, r2
 8000c22:	61bb      	str	r3, [r7, #24]
 8000c24:	683b      	ldr	r3, [r7, #0]
 8000c26:	691a      	ldr	r2, [r3, #16]
 8000c28:	69fb      	ldr	r3, [r7, #28]
 8000c2a:	f003 0307 	and.w	r3, r3, #7
 8000c2e:	009b      	lsls	r3, r3, #2
 8000c30:	fa02 f303 	lsl.w	r3, r2, r3
 8000c34:	69ba      	ldr	r2, [r7, #24]
 8000c36:	4313      	orrs	r3, r2
 8000c38:	61bb      	str	r3, [r7, #24]
 8000c3a:	69fb      	ldr	r3, [r7, #28]
 8000c3c:	08da      	lsrs	r2, r3, #3
 8000c3e:	687b      	ldr	r3, [r7, #4]
 8000c40:	3208      	adds	r2, #8
 8000c42:	69b9      	ldr	r1, [r7, #24]
 8000c44:	f843 1022 	str.w	r1, [r3, r2, lsl #2]
 8000c48:	687b      	ldr	r3, [r7, #4]
 8000c4a:	681b      	ldr	r3, [r3, #0]
 8000c4c:	61bb      	str	r3, [r7, #24]
 8000c4e:	69fb      	ldr	r3, [r7, #28]
 8000c50:	005b      	lsls	r3, r3, #1
 8000c52:	2203      	movs	r2, #3
 8000c54:	fa02 f303 	lsl.w	r3, r2, r3
 8000c58:	43db      	mvns	r3, r3
 8000c5a:	69ba      	ldr	r2, [r7, #24]
 8000c5c:	4013      	ands	r3, r2
 8000c5e:	61bb      	str	r3, [r7, #24]
 8000c60:	683b      	ldr	r3, [r7, #0]
 8000c62:	685b      	ldr	r3, [r3, #4]
 8000c64:	f003 0203 	and.w	r2, r3, #3
 8000c68:	69fb      	ldr	r3, [r7, #28]
 8000c6a:	005b      	lsls	r3, r3, #1
 8000c6c:	fa02 f303 	lsl.w	r3, r2, r3
 8000c70:	69ba      	ldr	r2, [r7, #24]
 8000c72:	4313      	orrs	r3, r2
 8000c74:	61bb      	str	r3, [r7, #24]
 8000c76:	687b      	ldr	r3, [r7, #4]
 8000c78:	69ba      	ldr	r2, [r7, #24]
 8000c7a:	601a      	str	r2, [r3, #0]
 8000c7c:	683b      	ldr	r3, [r7, #0]
 8000c7e:	685b      	ldr	r3, [r3, #4]
 8000c80:	f403 3340 	and.w	r3, r3, #196608	; 0x30000
 8000c84:	2b00      	cmp	r3, #0
 8000c86:	f000 80c0 	beq.w	8000e0a <HAL_GPIO_Init+0x306>
 8000c8a:	2300      	movs	r3, #0
 8000c8c:	60fb      	str	r3, [r7, #12]
 8000c8e:	4b66      	ldr	r3, [pc, #408]	; (8000e28 <HAL_GPIO_Init+0x324>)
 8000c90:	6c5b      	ldr	r3, [r3, #68]	; 0x44
 8000c92:	4a65      	ldr	r2, [pc, #404]	; (8000e28 <HAL_GPIO_Init+0x324>)
 8000c94:	f443 4380 	orr.w	r3, r3, #16384	; 0x4000
 8000c98:	6453      	str	r3, [r2, #68]	; 0x44
 8000c9a:	4b63      	ldr	r3, [pc, #396]	; (8000e28 <HAL_GPIO_Init+0x324>)
 8000c9c:	6c5b      	ldr	r3, [r3, #68]	; 0x44
 8000c9e:	f403 4380 	and.w	r3, r3, #16384	; 0x4000
 8000ca2:	60fb      	str	r3, [r7, #12]
 8000ca4:	68fb      	ldr	r3, [r7, #12]
 8000ca6:	4a61      	ldr	r2, [pc, #388]	; (8000e2c <HAL_GPIO_Init+0x328>)
 8000ca8:	69fb      	ldr	r3, [r7, #28]
 8000caa:	089b      	lsrs	r3, r3, #2
 8000cac:	3302      	adds	r3, #2
 8000cae:	f852 3023 	ldr.w	r3, [r2, r3, lsl #2]
 8000cb2:	61bb      	str	r3, [r7, #24]
 8000cb4:	69fb      	ldr	r3, [r7, #28]
 8000cb6:	f003 0303 	and.w	r3, r3, #3
 8000cba:	009b      	lsls	r3, r3, #2
 8000cbc:	220f      	movs	r2, #15
 8000cbe:	fa02 f303 	lsl.w	r3, r2, r3
 8000cc2:	43db      	mvns	r3, r3
 8000cc4:	69ba      	ldr	r2, [r7, #24]
 8000cc6:	4013      	ands	r3, r2
 8000cc8:	61bb      	str	r3, [r7, #24]
 8000cca:	687b      	ldr	r3, [r7, #4]
 8000ccc:	4a58      	ldr	r2, [pc, #352]	; (8000e30 <HAL_GPIO_Init+0x32c>)
 8000cce:	4293      	cmp	r3, r2
 8000cd0:	d037      	beq.n	8000d42 <HAL_GPIO_Init+0x23e>
 8000cd2:	687b      	ldr	r3, [r7, #4]
 8000cd4:	4a57      	ldr	r2, [pc, #348]	; (8000e34 <HAL_GPIO_Init+0x330>)
 8000cd6:	4293      	cmp	r3, r2
 8000cd8:	d031      	beq.n	8000d3e <HAL_GPIO_Init+0x23a>
 8000cda:	687b      	ldr	r3, [r7, #4]
 8000cdc:	4a56      	ldr	r2, [pc, #344]	; (8000e38 <HAL_GPIO_Init+0x334>)
 8000cde:	4293      	cmp	r3, r2
 8000ce0:	d02b      	beq.n	8000d3a <HAL_GPIO_Init+0x236>
 8000ce2:	687b      	ldr	r3, [r7, #4]
 8000ce4:	4a55      	ldr	r2, [pc, #340]	; (8000e3c <HAL_GPIO_Init+0x338>)
 8000ce6:	4293      	cmp	r3, r2
 8000ce8:	d025      	beq.n	8000d36 <HAL_GPIO_Init+0x232>
 8000cea:	687b      	ldr	r3, [r7, #4]
 8000cec:	4a54      	ldr	r2, [pc, #336]	; (8000e40 <HAL_GPIO_Init+0x33c>)
 8000cee:	4293      	cmp	r3, r2
 8000cf0:	d01f      	beq.n	8000d32 <HAL_GPIO_Init+0x22e>
 8000cf2:	687b      	ldr	r3, [r7, #4]
 8000cf4:	4a53      	ldr	r2, [pc, #332]	; (8000e44 <HAL_GPIO_Init+0x340>)
 8000cf6:	4293      	cmp	r3, r2
 8000cf8:	d019      	beq.n	8000d2e <HAL_GPIO_Init+0x22a>
 8000cfa:	687b      	ldr	r3, [r7, #4]
 8000cfc:	4a52      	ldr	r2, [pc, #328]	; (8000e48 <HAL_GPIO_Init+0x344>)
 8000cfe:	4293      	cmp	r3, r2
 8000d00:	d013      	beq.n	8000d2a <HAL_GPIO_Init+0x226>
 8000d02:	687b      	ldr	r3, [r7, #4]
 8000d04:	4a51      	ldr	r2, [pc, #324]	; (8000e4c <HAL_GPIO_Init+0x348>)
 8000d06:	4293      	cmp	r3, r2
 8000d08:	d00d      	beq.n	8000d26 <HAL_GPIO_Init+0x222>
 8000d0a:	687b      	ldr	r3, [r7, #4]
 8000d0c:	4a50      	ldr	r2, [pc, #320]	; (8000e50 <HAL_GPIO_Init+0x34c>)
 8000d0e:	4293      	cmp	r3, r2
 8000d10:	d007      	beq.n	8000d22 <HAL_GPIO_Init+0x21e>
 8000d12:	687b      	ldr	r3, [r7, #4]
 8000d14:	4a4f      	ldr	r2, [pc, #316]	; (8000e54 <HAL_GPIO_Init+0x350>)
 8000d16:	4293      	cmp	r3, r2
 8000d18:	d101      	bne.n	8000d1e <HAL_GPIO_Init+0x21a>
 8000d1a:	2309      	movs	r3, #9
 8000d1c:	e012      	b.n	8000d44 <HAL_GPIO_Init+0x240>
 8000d1e:	230a      	movs	r3, #10
 8000d20:	e010      	b.n	8000d44 <HAL_GPIO_Init+0x240>
 8000d22:	2308      	movs	r3, #8
 8000d24:	e00e      	b.n	8000d44 <HAL_GPIO_Init+0x240>
 8000d26:	2307      	movs	r3, #7
 8000d28:	e00c      	b.n	8000d44 <HAL_GPIO_Init+0x240>
 8000d2a:	2306      	movs	r3, #6
 8000d2c:	e00a      	b.n	8000d44 <HAL_GPIO_Init+0x240>
 8000d2e:	2305      	movs	r3, #5
 8000d30:	e008      	b.n	8000d44 <HAL_GPIO_Init+0x240>
 8000d32:	2304      	movs	r3, #4
 8000d34:	e006      	b.n	8000d44 <HAL_GPIO_Init+0x240>
 8000d36:	2303      	movs	r3, #3
 8000d38:	e004      	b.n	8000d44 <HAL_GPIO_Init+0x240>
 8000d3a:	2302      	movs	r3, #2
 8000d3c:	e002      	b.n	8000d44 <HAL_GPIO_Init+0x240>
 8000d3e:	2301      	movs	r3, #1
 8000d40:	e000      	b.n	8000d44 <HAL_GPIO_Init+0x240>
 8000d42:	2300      	movs	r3, #0
 8000d44:	69fa      	ldr	r2, [r7, #28]
 8000d46:	f002 0203 	and.w	r2, r2, #3
 8000d4a:	0092      	lsls	r2, r2, #2
 8000d4c:	4093      	lsls	r3, r2
 8000d4e:	69ba      	ldr	r2, [r7, #24]
 8000d50:	4313      	orrs	r3, r2
 8000d52:	61bb      	str	r3, [r7, #24]
 8000d54:	4935      	ldr	r1, [pc, #212]	; (8000e2c <HAL_GPIO_Init+0x328>)
 8000d56:	69fb      	ldr	r3, [r7, #28]
 8000d58:	089b      	lsrs	r3, r3, #2
 8000d5a:	3302      	adds	r3, #2
 8000d5c:	69ba      	ldr	r2, [r7, #24]
 8000d5e:	f841 2023 	str.w	r2, [r1, r3, lsl #2]
 8000d62:	4b3d      	ldr	r3, [pc, #244]	; (8000e58 <HAL_GPIO_Init+0x354>)
 8000d64:	689b      	ldr	r3, [r3, #8]
 8000d66:	61bb      	str	r3, [r7, #24]
 8000d68:	693b      	ldr	r3, [r7, #16]
 8000d6a:	43db      	mvns	r3, r3
 8000d6c:	69ba      	ldr	r2, [r7, #24]
 8000d6e:	4013      	ands	r3, r2
 8000d70:	61bb      	str	r3, [r7, #24]
 8000d72:	683b      	ldr	r3, [r7, #0]
 8000d74:	685b      	ldr	r3, [r3, #4]
 8000d76:	f403 1380 	and.w	r3, r3, #1048576	; 0x100000
 8000d7a:	2b00      	cmp	r3, #0
 8000d7c:	d003      	beq.n	8000d86 <HAL_GPIO_Init+0x282>
 8000d7e:	69ba      	ldr	r2, [r7, #24]
 8000d80:	693b      	ldr	r3, [r7, #16]
 8000d82:	4313      	orrs	r3, r2
 8000d84:	61bb      	str	r3, [r7, #24]
 8000d86:	4a34      	ldr	r2, [pc, #208]	; (8000e58 <HAL_GPIO_Init+0x354>)
 8000d88:	69bb      	ldr	r3, [r7, #24]
 8000d8a:	6093      	str	r3, [r2, #8]
 8000d8c:	4b32      	ldr	r3, [pc, #200]	; (8000e58 <HAL_GPIO_Init+0x354>)
 8000d8e:	68db      	ldr	r3, [r3, #12]
 8000d90:	61bb      	str	r3, [r7, #24]
 8000d92:	693b      	ldr	r3, [r7, #16]
 8000d94:	43db      	mvns	r3, r3
 8000d96:	69ba      	ldr	r2, [r7, #24]
 8000d98:	4013      	ands	r3, r2
 8000d9a:	61bb      	str	r3, [r7, #24]
 8000d9c:	683b      	ldr	r3, [r7, #0]
 8000d9e:	685b      	ldr	r3, [r3, #4]
 8000da0:	f403 1300 	and.w	r3, r3, #2097152	; 0x200000
 8000da4:	2b00      	cmp	r3, #0
 8000da6:	d003      	beq.n	8000db0 <HAL_GPIO_Init+0x2ac>
 8000da8:	69ba      	ldr	r2, [r7, #24]
 8000daa:	693b      	ldr	r3, [r7, #16]
 8000dac:	4313      	orrs	r3, r2
 8000dae:	61bb      	str	r3, [r7, #24]
 8000db0:	4a29      	ldr	r2, [pc, #164]	; (8000e58 <HAL_GPIO_Init+0x354>)
 8000db2:	69bb      	ldr	r3, [r7, #24]
 8000db4:	60d3      	str	r3, [r2, #12]
 8000db6:	4b28      	ldr	r3, [pc, #160]	; (8000e58 <HAL_GPIO_Init+0x354>)
 8000db8:	685b      	ldr	r3, [r3, #4]
 8000dba:	61bb      	str	r3, [r7, #24]
 8000dbc:	693b      	ldr	r3, [r7, #16]
 8000dbe:	43db      	mvns	r3, r3
 8000dc0:	69ba      	ldr	r2, [r7, #24]
 8000dc2:	4013      	ands	r3, r2
 8000dc4:	61bb      	str	r3, [r7, #24]
 8000dc6:	683b      	ldr	r3, [r7, #0]
 8000dc8:	685b      	ldr	r3, [r3, #4]
 8000dca:	f403 3300 	and.w	r3, r3, #131072	; 0x20000
 8000dce:	2b00      	cmp	r3, #0
 8000dd0:	d003      	beq.n	8000dda <HAL_GPIO_Init+0x2d6>
 8000dd2:	69ba      	ldr	r2, [r7, #24]
 8000dd4:	693b      	ldr	r3, [r7, #16]
 8000dd6:	4313      	orrs	r3, r2
 8000dd8:	61bb      	str	r3, [r7, #24]
 8000dda:	4a1f      	ldr	r2, [pc, #124]	; (8000e58 <HAL_GPIO_Init+0x354>)
 8000ddc:	69bb      	ldr	r3, [r7, #24]
 8000dde:	6053      	str	r3, [r2, #4]
 8000de0:	4b1d      	ldr	r3, [pc, #116]	; (8000e58 <HAL_GPIO_Init+0x354>)
 8000de2:	681b      	ldr	r3, [r3, #0]
 8000de4:	61bb      	str	r3, [r7, #24]
 8000de6:	693b      	ldr	r3, [r7, #16]
 8000de8:	43db      	mvns	r3, r3
 8000dea:	69ba      	ldr	r2, [r7, #24]
 8000dec:	4013      	ands	r3, r2
 8000dee:	61bb      	str	r3, [r7, #24]
 8000df0:	683b      	ldr	r3, [r7, #0]
 8000df2:	685b      	ldr	r3, [r3, #4]
 8000df4:	f403 3380 	and.w	r3, r3, #65536	; 0x10000
 8000df8:	2b00      	cmp	r3, #0
 8000dfa:	d003      	beq.n	8000e04 <HAL_GPIO_Init+0x300>
 8000dfc:	69ba      	ldr	r2, [r7, #24]
 8000dfe:	693b      	ldr	r3, [r7, #16]
 8000e00:	4313      	orrs	r3, r2
 8000e02:	61bb      	str	r3, [r7, #24]
 8000e04:	4a14      	ldr	r2, [pc, #80]	; (8000e58 <HAL_GPIO_Init+0x354>)
 8000e06:	69bb      	ldr	r3, [r7, #24]
 8000e08:	6013      	str	r3, [r2, #0]
 8000e0a:	69fb      	ldr	r3, [r7, #28]
 8000e0c:	3301      	adds	r3, #1
 8000e0e:	61fb      	str	r3, [r7, #28]
 8000e10:	69fb      	ldr	r3, [r7, #28]
 8000e12:	2b0f      	cmp	r3, #15
 8000e14:	f67f ae84 	bls.w	8000b20 <HAL_GPIO_Init+0x1c>
 8000e18:	bf00      	nop
 8000e1a:	bf00      	nop
 8000e1c:	3724      	adds	r7, #36	; 0x24
 8000e1e:	46bd      	mov	sp, r7
 8000e20:	f85d 7b04 	ldr.w	r7, [sp], #4
 8000e24:	4770      	bx	lr
 8000e26:	bf00      	nop
 8000e28:	40023800 	.word	0x40023800
 8000e2c:	40013800 	.word	0x40013800
 8000e30:	40020000 	.word	0x40020000
 8000e34:	40020400 	.word	0x40020400
 8000e38:	40020800 	.word	0x40020800
 8000e3c:	40020c00 	.word	0x40020c00
 8000e40:	40021000 	.word	0x40021000
 8000e44:	40021400 	.word	0x40021400
 8000e48:	40021800 	.word	0x40021800
 8000e4c:	40021c00 	.word	0x40021c00
 8000e50:	40022000 	.word	0x40022000
 8000e54:	40022400 	.word	0x40022400
 8000e58:	40013c00 	.word	0x40013c00

08000e5c <HAL_RCC_OscConfig>:
 8000e5c:	b580      	push	{r7, lr}
 8000e5e:	b086      	sub	sp, #24
 8000e60:	af00      	add	r7, sp, #0
 8000e62:	6078      	str	r0, [r7, #4]
 8000e64:	687b      	ldr	r3, [r7, #4]
 8000e66:	2b00      	cmp	r3, #0
 8000e68:	d101      	bne.n	8000e6e <HAL_RCC_OscConfig+0x12>
 8000e6a:	2301      	movs	r3, #1
 8000e6c:	e267      	b.n	800133e <HAL_RCC_OscConfig+0x4e2>
 8000e6e:	687b      	ldr	r3, [r7, #4]
 8000e70:	681b      	ldr	r3, [r3, #0]
 8000e72:	f003 0301 	and.w	r3, r3, #1
 8000e76:	2b00      	cmp	r3, #0
 8000e78:	d075      	beq.n	8000f66 <HAL_RCC_OscConfig+0x10a>
 8000e7a:	4b88      	ldr	r3, [pc, #544]	; (800109c <HAL_RCC_OscConfig+0x240>)
 8000e7c:	689b      	ldr	r3, [r3, #8]
 8000e7e:	f003 030c 	and.w	r3, r3, #12
 8000e82:	2b04      	cmp	r3, #4
 8000e84:	d00c      	beq.n	8000ea0 <HAL_RCC_OscConfig+0x44>
 8000e86:	4b85      	ldr	r3, [pc, #532]	; (800109c <HAL_RCC_OscConfig+0x240>)
 8000e88:	689b      	ldr	r3, [r3, #8]
 8000e8a:	f003 030c 	and.w	r3, r3, #12
 8000e8e:	2b08      	cmp	r3, #8
 8000e90:	d112      	bne.n	8000eb8 <HAL_RCC_OscConfig+0x5c>
 8000e92:	4b82      	ldr	r3, [pc, #520]	; (800109c <HAL_RCC_OscConfig+0x240>)
 8000e94:	685b      	ldr	r3, [r3, #4]
 8000e96:	f403 0380 	and.w	r3, r3, #4194304	; 0x400000
 8000e9a:	f5b3 0f80 	cmp.w	r3, #4194304	; 0x400000
 8000e9e:	d10b      	bne.n	8000eb8 <HAL_RCC_OscConfig+0x5c>
 8000ea0:	4b7e      	ldr	r3, [pc, #504]	; (800109c <HAL_RCC_OscConfig+0x240>)
 8000ea2:	681b      	ldr	r3, [r3, #0]
 8000ea4:	f403 3300 	and.w	r3, r3, #131072	; 0x20000
 8000ea8:	2b00      	cmp	r3, #0
 8000eaa:	d05b      	beq.n	8000f64 <HAL_RCC_OscConfig+0x108>
 8000eac:	687b      	ldr	r3, [r7, #4]
 8000eae:	685b      	ldr	r3, [r3, #4]
 8000eb0:	2b00      	cmp	r3, #0
 8000eb2:	d157      	bne.n	8000f64 <HAL_RCC_OscConfig+0x108>
 8000eb4:	2301      	movs	r3, #1
 8000eb6:	e242      	b.n	800133e <HAL_RCC_OscConfig+0x4e2>
 8000eb8:	687b      	ldr	r3, [r7, #4]
 8000eba:	685b      	ldr	r3, [r3, #4]
 8000ebc:	f5b3 3f80 	cmp.w	r3, #65536	; 0x10000
 8000ec0:	d106      	bne.n	8000ed0 <HAL_RCC_OscConfig+0x74>
 8000ec2:	4b76      	ldr	r3, [pc, #472]	; (800109c <HAL_RCC_OscConfig+0x240>)
 8000ec4:	681b      	ldr	r3, [r3, #0]
 8000ec6:	4a75      	ldr	r2, [pc, #468]	; (800109c <HAL_RCC_OscConfig+0x240>)
 8000ec8:	f443 3380 	orr.w	r3, r3, #65536	; 0x10000
 8000ecc:	6013      	str	r3, [r2, #0]
 8000ece:	e01d      	b.n	8000f0c <HAL_RCC_OscConfig+0xb0>
 8000ed0:	687b      	ldr	r3, [r7, #4]
 8000ed2:	685b      	ldr	r3, [r3, #4]
 8000ed4:	f5b3 2fa0 	cmp.w	r3, #327680	; 0x50000
 8000ed8:	d10c      	bne.n	8000ef4 <HAL_RCC_OscConfig+0x98>
 8000eda:	4b70      	ldr	r3, [pc, #448]	; (800109c <HAL_RCC_OscConfig+0x240>)
 8000edc:	681b      	ldr	r3, [r3, #0]
 8000ede:	4a6f      	ldr	r2, [pc, #444]	; (800109c <HAL_RCC_OscConfig+0x240>)
 8000ee0:	f443 2380 	orr.w	r3, r3, #262144	; 0x40000
 8000ee4:	6013      	str	r3, [r2, #0]
 8000ee6:	4b6d      	ldr	r3, [pc, #436]	; (800109c <HAL_RCC_OscConfig+0x240>)
 8000ee8:	681b      	ldr	r3, [r3, #0]
 8000eea:	4a6c      	ldr	r2, [pc, #432]	; (800109c <HAL_RCC_OscConfig+0x240>)
 8000eec:	f443 3380 	orr.w	r3, r3, #65536	; 0x10000
 8000ef0:	6013      	str	r3, [r2, #0]
 8000ef2:	e00b      	b.n	8000f0c <HAL_RCC_OscConfig+0xb0>
 8000ef4:	4b69      	ldr	r3, [pc, #420]	; (800109c <HAL_RCC_OscConfig+0x240>)
 8000ef6:	681b      	ldr	r3, [r3, #0]
 8000ef8:	4a68      	ldr	r2, [pc, #416]	; (800109c <HAL_RCC_OscConfig+0x240>)
 8000efa:	f423 3380 	bic.w	r3, r3, #65536	; 0x10000
 8000efe:	6013      	str	r3, [r2, #0]
 8000f00:	4b66      	ldr	r3, [pc, #408]	; (800109c <HAL_RCC_OscConfig+0x240>)
 8000f02:	681b      	ldr	r3, [r3, #0]
 8000f04:	4a65      	ldr	r2, [pc, #404]	; (800109c <HAL_RCC_OscConfig+0x240>)
 8000f06:	f423 2380 	bic.w	r3, r3, #262144	; 0x40000
 8000f0a:	6013      	str	r3, [r2, #0]
 8000f0c:	687b      	ldr	r3, [r7, #4]
 8000f0e:	685b      	ldr	r3, [r3, #4]
 8000f10:	2b00      	cmp	r3, #0
 8000f12:	d013      	beq.n	8000f3c <HAL_RCC_OscConfig+0xe0>
 8000f14:	f7ff fd04 	bl	8000920 <HAL_GetTick>
 8000f18:	6138      	str	r0, [r7, #16]
 8000f1a:	e008      	b.n	8000f2e <HAL_RCC_OscConfig+0xd2>
 8000f1c:	f7ff fd00 	bl	8000920 <HAL_GetTick>
 8000f20:	4602      	mov	r2, r0
 8000f22:	693b      	ldr	r3, [r7, #16]
 8000f24:	1ad3      	subs	r3, r2, r3
 8000f26:	2b64      	cmp	r3, #100	; 0x64
 8000f28:	d901      	bls.n	8000f2e <HAL_RCC_OscConfig+0xd2>
 8000f2a:	2303      	movs	r3, #3
 8000f2c:	e207      	b.n	800133e <HAL_RCC_OscConfig+0x4e2>
 8000f2e:	4b5b      	ldr	r3, [pc, #364]	; (800109c <HAL_RCC_OscConfig+0x240>)
 8000f30:	681b      	ldr	r3, [r3, #0]
 8000f32:	f403 3300 	and.w	r3, r3, #131072	; 0x20000
 8000f36:	2b00      	cmp	r3, #0
 8000f38:	d0f0      	beq.n	8000f1c <HAL_RCC_OscConfig+0xc0>
 8000f3a:	e014      	b.n	8000f66 <HAL_RCC_OscConfig+0x10a>
 8000f3c:	f7ff fcf0 	bl	8000920 <HAL_GetTick>
 8000f40:	6138      	str	r0, [r7, #16]
 8000f42:	e008      	b.n	8000f56 <HAL_RCC_OscConfig+0xfa>
 8000f44:	f7ff fcec 	bl	8000920 <HAL_GetTick>
 8000f48:	4602      	mov	r2, r0
 8000f4a:	693b      	ldr	r3, [r7, #16]
 8000f4c:	1ad3      	subs	r3, r2, r3
 8000f4e:	2b64      	cmp	r3, #100	; 0x64
 8000f50:	d901      	bls.n	8000f56 <HAL_RCC_OscConfig+0xfa>
 8000f52:	2303      	movs	r3, #3
 8000f54:	e1f3      	b.n	800133e <HAL_RCC_OscConfig+0x4e2>
 8000f56:	4b51      	ldr	r3, [pc, #324]	; (800109c <HAL_RCC_OscConfig+0x240>)
 8000f58:	681b      	ldr	r3, [r3, #0]
 8000f5a:	f403 3300 	and.w	r3, r3, #131072	; 0x20000
 8000f5e:	2b00      	cmp	r3, #0
 8000f60:	d1f0      	bne.n	8000f44 <HAL_RCC_OscConfig+0xe8>
 8000f62:	e000      	b.n	8000f66 <HAL_RCC_OscConfig+0x10a>
 8000f64:	bf00      	nop
 8000f66:	687b      	ldr	r3, [r7, #4]
 8000f68:	681b      	ldr	r3, [r3, #0]
 8000f6a:	f003 0302 	and.w	r3, r3, #2
 8000f6e:	2b00      	cmp	r3, #0
 8000f70:	d063      	beq.n	800103a <HAL_RCC_OscConfig+0x1de>
 8000f72:	4b4a      	ldr	r3, [pc, #296]	; (800109c <HAL_RCC_OscConfig+0x240>)
 8000f74:	689b      	ldr	r3, [r3, #8]
 8000f76:	f003 030c 	and.w	r3, r3, #12
 8000f7a:	2b00      	cmp	r3, #0
 8000f7c:	d00b      	beq.n	8000f96 <HAL_RCC_OscConfig+0x13a>
 8000f7e:	4b47      	ldr	r3, [pc, #284]	; (800109c <HAL_RCC_OscConfig+0x240>)
 8000f80:	689b      	ldr	r3, [r3, #8]
 8000f82:	f003 030c 	and.w	r3, r3, #12
 8000f86:	2b08      	cmp	r3, #8
 8000f88:	d11c      	bne.n	8000fc4 <HAL_RCC_OscConfig+0x168>
 8000f8a:	4b44      	ldr	r3, [pc, #272]	; (800109c <HAL_RCC_OscConfig+0x240>)
 8000f8c:	685b      	ldr	r3, [r3, #4]
 8000f8e:	f403 0380 	and.w	r3, r3, #4194304	; 0x400000
 8000f92:	2b00      	cmp	r3, #0
 8000f94:	d116      	bne.n	8000fc4 <HAL_RCC_OscConfig+0x168>
 8000f96:	4b41      	ldr	r3, [pc, #260]	; (800109c <HAL_RCC_OscConfig+0x240>)
 8000f98:	681b      	ldr	r3, [r3, #0]
 8000f9a:	f003 0302 	and.w	r3, r3, #2
 8000f9e:	2b00      	cmp	r3, #0
 8000fa0:	d005      	beq.n	8000fae <HAL_RCC_OscConfig+0x152>
 8000fa2:	687b      	ldr	r3, [r7, #4]
 8000fa4:	68db      	ldr	r3, [r3, #12]
 8000fa6:	2b01      	cmp	r3, #1
 8000fa8:	d001      	beq.n	8000fae <HAL_RCC_OscConfig+0x152>
 8000faa:	2301      	movs	r3, #1
 8000fac:	e1c7      	b.n	800133e <HAL_RCC_OscConfig+0x4e2>
 8000fae:	4b3b      	ldr	r3, [pc, #236]	; (800109c <HAL_RCC_OscConfig+0x240>)
 8000fb0:	681b      	ldr	r3, [r3, #0]
 8000fb2:	f023 02f8 	bic.w	r2, r3, #248	; 0xf8
 8000fb6:	687b      	ldr	r3, [r7, #4]
 8000fb8:	691b      	ldr	r3, [r3, #16]
 8000fba:	00db      	lsls	r3, r3, #3
 8000fbc:	4937      	ldr	r1, [pc, #220]	; (800109c <HAL_RCC_OscConfig+0x240>)
 8000fbe:	4313      	orrs	r3, r2
 8000fc0:	600b      	str	r3, [r1, #0]
 8000fc2:	e03a      	b.n	800103a <HAL_RCC_OscConfig+0x1de>
 8000fc4:	687b      	ldr	r3, [r7, #4]
 8000fc6:	68db      	ldr	r3, [r3, #12]
 8000fc8:	2b00      	cmp	r3, #0
 8000fca:	d020      	beq.n	800100e <HAL_RCC_OscConfig+0x1b2>
 8000fcc:	4b34      	ldr	r3, [pc, #208]	; (80010a0 <HAL_RCC_OscConfig+0x244>)
 8000fce:	2201      	movs	r2, #1
 8000fd0:	601a      	str	r2, [r3, #0]
 8000fd2:	f7ff fca5 	bl	8000920 <HAL_GetTick>
 8000fd6:	6138      	str	r0, [r7, #16]
 8000fd8:	e008      	b.n	8000fec <HAL_RCC_OscConfig+0x190>
 8000fda:	f7ff fca1 	bl	8000920 <HAL_GetTick>
 8000fde:	4602      	mov	r2, r0
 8000fe0:	693b      	ldr	r3, [r7, #16]
 8000fe2:	1ad3      	subs	r3, r2, r3
 8000fe4:	2b02      	cmp	r3, #2
 8000fe6:	d901      	bls.n	8000fec <HAL_RCC_OscConfig+0x190>
 8000fe8:	2303      	movs	r3, #3
 8000fea:	e1a8      	b.n	800133e <HAL_RCC_OscConfig+0x4e2>
 8000fec:	4b2b      	ldr	r3, [pc, #172]	; (800109c <HAL_RCC_OscConfig+0x240>)
 8000fee:	681b      	ldr	r3, [r3, #0]
 8000ff0:	f003 0302 	and.w	r3, r3, #2
 8000ff4:	2b00      	cmp	r3, #0
 8000ff6:	d0f0      	beq.n	8000fda <HAL_RCC_OscConfig+0x17e>
 8000ff8:	4b28      	ldr	r3, [pc, #160]	; (800109c <HAL_RCC_OscConfig+0x240>)
 8000ffa:	681b      	ldr	r3, [r3, #0]
 8000ffc:	f023 02f8 	bic.w	r2, r3, #248	; 0xf8
 8001000:	687b      	ldr	r3, [r7, #4]
 8001002:	691b      	ldr	r3, [r3, #16]
 8001004:	00db      	lsls	r3, r3, #3
 8001006:	4925      	ldr	r1, [pc, #148]	; (800109c <HAL_RCC_OscConfig+0x240>)
 8001008:	4313      	orrs	r3, r2
 800100a:	600b      	str	r3, [r1, #0]
 800100c:	e015      	b.n	800103a <HAL_RCC_OscConfig+0x1de>
 800100e:	4b24      	ldr	r3, [pc, #144]	; (80010a0 <HAL_RCC_OscConfig+0x244>)
 8001010:	2200      	movs	r2, #0
 8001012:	601a      	str	r2, [r3, #0]
 8001014:	f7ff fc84 	bl	8000920 <HAL_GetTick>
 8001018:	6138      	str	r0, [r7, #16]
 800101a:	e008      	b.n	800102e <HAL_RCC_OscConfig+0x1d2>
 800101c:	f7ff fc80 	bl	8000920 <HAL_GetTick>
 8001020:	4602      	mov	r2, r0
 8001022:	693b      	ldr	r3, [r7, #16]
 8001024:	1ad3      	subs	r3, r2, r3
 8001026:	2b02      	cmp	r3, #2
 8001028:	d901      	bls.n	800102e <HAL_RCC_OscConfig+0x1d2>
 800102a:	2303      	movs	r3, #3
 800102c:	e187      	b.n	800133e <HAL_RCC_OscConfig+0x4e2>
 800102e:	4b1b      	ldr	r3, [pc, #108]	; (800109c <HAL_RCC_OscConfig+0x240>)
 8001030:	681b      	ldr	r3, [r3, #0]
 8001032:	f003 0302 	and.w	r3, r3, #2
 8001036:	2b00      	cmp	r3, #0
 8001038:	d1f0      	bne.n	800101c <HAL_RCC_OscConfig+0x1c0>
 800103a:	687b      	ldr	r3, [r7, #4]
 800103c:	681b      	ldr	r3, [r3, #0]
 800103e:	f003 0308 	and.w	r3, r3, #8
 8001042:	2b00      	cmp	r3, #0
 8001044:	d036      	beq.n	80010b4 <HAL_RCC_OscConfig+0x258>
 8001046:	687b      	ldr	r3, [r7, #4]
 8001048:	695b      	ldr	r3, [r3, #20]
 800104a:	2b00      	cmp	r3, #0
 800104c:	d016      	beq.n	800107c <HAL_RCC_OscConfig+0x220>
 800104e:	4b15      	ldr	r3, [pc, #84]	; (80010a4 <HAL_RCC_OscConfig+0x248>)
 8001050:	2201      	movs	r2, #1
 8001052:	601a      	str	r2, [r3, #0]
 8001054:	f7ff fc64 	bl	8000920 <HAL_GetTick>
 8001058:	6138      	str	r0, [r7, #16]
 800105a:	e008      	b.n	800106e <HAL_RCC_OscConfig+0x212>
 800105c:	f7ff fc60 	bl	8000920 <HAL_GetTick>
 8001060:	4602      	mov	r2, r0
 8001062:	693b      	ldr	r3, [r7, #16]
 8001064:	1ad3      	subs	r3, r2, r3
 8001066:	2b02      	cmp	r3, #2
 8001068:	d901      	bls.n	800106e <HAL_RCC_OscConfig+0x212>
 800106a:	2303      	movs	r3, #3
 800106c:	e167      	b.n	800133e <HAL_RCC_OscConfig+0x4e2>
 800106e:	4b0b      	ldr	r3, [pc, #44]	; (800109c <HAL_RCC_OscConfig+0x240>)
 8001070:	6f5b      	ldr	r3, [r3, #116]	; 0x74
 8001072:	f003 0302 	and.w	r3, r3, #2
 8001076:	2b00      	cmp	r3, #0
 8001078:	d0f0      	beq.n	800105c <HAL_RCC_OscConfig+0x200>
 800107a:	e01b      	b.n	80010b4 <HAL_RCC_OscConfig+0x258>
 800107c:	4b09      	ldr	r3, [pc, #36]	; (80010a4 <HAL_RCC_OscConfig+0x248>)
 800107e:	2200      	movs	r2, #0
 8001080:	601a      	str	r2, [r3, #0]
 8001082:	f7ff fc4d 	bl	8000920 <HAL_GetTick>
 8001086:	6138      	str	r0, [r7, #16]
 8001088:	e00e      	b.n	80010a8 <HAL_RCC_OscConfig+0x24c>
 800108a:	f7ff fc49 	bl	8000920 <HAL_GetTick>
 800108e:	4602      	mov	r2, r0
 8001090:	693b      	ldr	r3, [r7, #16]
 8001092:	1ad3      	subs	r3, r2, r3
 8001094:	2b02      	cmp	r3, #2
 8001096:	d907      	bls.n	80010a8 <HAL_RCC_OscConfig+0x24c>
 8001098:	2303      	movs	r3, #3
 800109a:	e150      	b.n	800133e <HAL_RCC_OscConfig+0x4e2>
 800109c:	40023800 	.word	0x40023800
 80010a0:	42470000 	.word	0x42470000
 80010a4:	42470e80 	.word	0x42470e80
 80010a8:	4b88      	ldr	r3, [pc, #544]	; (80012cc <HAL_RCC_OscConfig+0x470>)
 80010aa:	6f5b      	ldr	r3, [r3, #116]	; 0x74
 80010ac:	f003 0302 	and.w	r3, r3, #2
 80010b0:	2b00      	cmp	r3, #0
 80010b2:	d1ea      	bne.n	800108a <HAL_RCC_OscConfig+0x22e>
 80010b4:	687b      	ldr	r3, [r7, #4]
 80010b6:	681b      	ldr	r3, [r3, #0]
 80010b8:	f003 0304 	and.w	r3, r3, #4
 80010bc:	2b00      	cmp	r3, #0
 80010be:	f000 8097 	beq.w	80011f0 <HAL_RCC_OscConfig+0x394>
 80010c2:	2300      	movs	r3, #0
 80010c4:	75fb      	strb	r3, [r7, #23]
 80010c6:	4b81      	ldr	r3, [pc, #516]	; (80012cc <HAL_RCC_OscConfig+0x470>)
 80010c8:	6c1b      	ldr	r3, [r3, #64]	; 0x40
 80010ca:	f003 5380 	and.w	r3, r3, #268435456	; 0x10000000
 80010ce:	2b00      	cmp	r3, #0
 80010d0:	d10f      	bne.n	80010f2 <HAL_RCC_OscConfig+0x296>
 80010d2:	2300      	movs	r3, #0
 80010d4:	60bb      	str	r3, [r7, #8]
 80010d6:	4b7d      	ldr	r3, [pc, #500]	; (80012cc <HAL_RCC_OscConfig+0x470>)
 80010d8:	6c1b      	ldr	r3, [r3, #64]	; 0x40
 80010da:	4a7c      	ldr	r2, [pc, #496]	; (80012cc <HAL_RCC_OscConfig+0x470>)
 80010dc:	f043 5380 	orr.w	r3, r3, #268435456	; 0x10000000
 80010e0:	6413      	str	r3, [r2, #64]	; 0x40
 80010e2:	4b7a      	ldr	r3, [pc, #488]	; (80012cc <HAL_RCC_OscConfig+0x470>)
 80010e4:	6c1b      	ldr	r3, [r3, #64]	; 0x40
 80010e6:	f003 5380 	and.w	r3, r3, #268435456	; 0x10000000
 80010ea:	60bb      	str	r3, [r7, #8]
 80010ec:	68bb      	ldr	r3, [r7, #8]
 80010ee:	2301      	movs	r3, #1
 80010f0:	75fb      	strb	r3, [r7, #23]
 80010f2:	4b77      	ldr	r3, [pc, #476]	; (80012d0 <HAL_RCC_OscConfig+0x474>)
 80010f4:	681b      	ldr	r3, [r3, #0]
 80010f6:	f403 7380 	and.w	r3, r3, #256	; 0x100
 80010fa:	2b00      	cmp	r3, #0
 80010fc:	d118      	bne.n	8001130 <HAL_RCC_OscConfig+0x2d4>
 80010fe:	4b74      	ldr	r3, [pc, #464]	; (80012d0 <HAL_RCC_OscConfig+0x474>)
 8001100:	681b      	ldr	r3, [r3, #0]
 8001102:	4a73      	ldr	r2, [pc, #460]	; (80012d0 <HAL_RCC_OscConfig+0x474>)
 8001104:	f443 7380 	orr.w	r3, r3, #256	; 0x100
 8001108:	6013      	str	r3, [r2, #0]
 800110a:	f7ff fc09 	bl	8000920 <HAL_GetTick>
 800110e:	6138      	str	r0, [r7, #16]
 8001110:	e008      	b.n	8001124 <HAL_RCC_OscConfig+0x2c8>
 8001112:	f7ff fc05 	bl	8000920 <HAL_GetTick>
 8001116:	4602      	mov	r2, r0
 8001118:	693b      	ldr	r3, [r7, #16]
 800111a:	1ad3      	subs	r3, r2, r3
 800111c:	2b02      	cmp	r3, #2
 800111e:	d901      	bls.n	8001124 <HAL_RCC_OscConfig+0x2c8>
 8001120:	2303      	movs	r3, #3
 8001122:	e10c      	b.n	800133e <HAL_RCC_OscConfig+0x4e2>
 8001124:	4b6a      	ldr	r3, [pc, #424]	; (80012d0 <HAL_RCC_OscConfig+0x474>)
 8001126:	681b      	ldr	r3, [r3, #0]
 8001128:	f403 7380 	and.w	r3, r3, #256	; 0x100
 800112c:	2b00      	cmp	r3, #0
 800112e:	d0f0      	beq.n	8001112 <HAL_RCC_OscConfig+0x2b6>
 8001130:	687b      	ldr	r3, [r7, #4]
 8001132:	689b      	ldr	r3, [r3, #8]
 8001134:	2b01      	cmp	r3, #1
 8001136:	d106      	bne.n	8001146 <HAL_RCC_OscConfig+0x2ea>
 8001138:	4b64      	ldr	r3, [pc, #400]	; (80012cc <HAL_RCC_OscConfig+0x470>)
 800113a:	6f1b      	ldr	r3, [r3, #112]	; 0x70
 800113c:	4a63      	ldr	r2, [pc, #396]	; (80012cc <HAL_RCC_OscConfig+0x470>)
 800113e:	f043 0301 	orr.w	r3, r3, #1
 8001142:	6713      	str	r3, [r2, #112]	; 0x70
 8001144:	e01c      	b.n	8001180 <HAL_RCC_OscConfig+0x324>
 8001146:	687b      	ldr	r3, [r7, #4]
 8001148:	689b      	ldr	r3, [r3, #8]
 800114a:	2b05      	cmp	r3, #5
 800114c:	d10c      	bne.n	8001168 <HAL_RCC_OscConfig+0x30c>
 800114e:	4b5f      	ldr	r3, [pc, #380]	; (80012cc <HAL_RCC_OscConfig+0x470>)
 8001150:	6f1b      	ldr	r3, [r3, #112]	; 0x70
 8001152:	4a5e      	ldr	r2, [pc, #376]	; (80012cc <HAL_RCC_OscConfig+0x470>)
 8001154:	f043 0304 	orr.w	r3, r3, #4
 8001158:	6713      	str	r3, [r2, #112]	; 0x70
 800115a:	4b5c      	ldr	r3, [pc, #368]	; (80012cc <HAL_RCC_OscConfig+0x470>)
 800115c:	6f1b      	ldr	r3, [r3, #112]	; 0x70
 800115e:	4a5b      	ldr	r2, [pc, #364]	; (80012cc <HAL_RCC_OscConfig+0x470>)
 8001160:	f043 0301 	orr.w	r3, r3, #1
 8001164:	6713      	str	r3, [r2, #112]	; 0x70
 8001166:	e00b      	b.n	8001180 <HAL_RCC_OscConfig+0x324>
 8001168:	4b58      	ldr	r3, [pc, #352]	; (80012cc <HAL_RCC_OscConfig+0x470>)
 800116a:	6f1b      	ldr	r3, [r3, #112]	; 0x70
 800116c:	4a57      	ldr	r2, [pc, #348]	; (80012cc <HAL_RCC_OscConfig+0x470>)
 800116e:	f023 0301 	bic.w	r3, r3, #1
 8001172:	6713      	str	r3, [r2, #112]	; 0x70
 8001174:	4b55      	ldr	r3, [pc, #340]	; (80012cc <HAL_RCC_OscConfig+0x470>)
 8001176:	6f1b      	ldr	r3, [r3, #112]	; 0x70
 8001178:	4a54      	ldr	r2, [pc, #336]	; (80012cc <HAL_RCC_OscConfig+0x470>)
 800117a:	f023 0304 	bic.w	r3, r3, #4
 800117e:	6713      	str	r3, [r2, #112]	; 0x70
 8001180:	687b      	ldr	r3, [r7, #4]
 8001182:	689b      	ldr	r3, [r3, #8]
 8001184:	2b00      	cmp	r3, #0
 8001186:	d015      	beq.n	80011b4 <HAL_RCC_OscConfig+0x358>
 8001188:	f7ff fbca 	bl	8000920 <HAL_GetTick>
 800118c:	6138      	str	r0, [r7, #16]
 800118e:	e00a      	b.n	80011a6 <HAL_RCC_OscConfig+0x34a>
 8001190:	f7ff fbc6 	bl	8000920 <HAL_GetTick>
 8001194:	4602      	mov	r2, r0
 8001196:	693b      	ldr	r3, [r7, #16]
 8001198:	1ad3      	subs	r3, r2, r3
 800119a:	f241 3288 	movw	r2, #5000	; 0x1388
 800119e:	4293      	cmp	r3, r2
 80011a0:	d901      	bls.n	80011a6 <HAL_RCC_OscConfig+0x34a>
 80011a2:	2303      	movs	r3, #3
 80011a4:	e0cb      	b.n	800133e <HAL_RCC_OscConfig+0x4e2>
 80011a6:	4b49      	ldr	r3, [pc, #292]	; (80012cc <HAL_RCC_OscConfig+0x470>)
 80011a8:	6f1b      	ldr	r3, [r3, #112]	; 0x70
 80011aa:	f003 0302 	and.w	r3, r3, #2
 80011ae:	2b00      	cmp	r3, #0
 80011b0:	d0ee      	beq.n	8001190 <HAL_RCC_OscConfig+0x334>
 80011b2:	e014      	b.n	80011de <HAL_RCC_OscConfig+0x382>
 80011b4:	f7ff fbb4 	bl	8000920 <HAL_GetTick>
 80011b8:	6138      	str	r0, [r7, #16]
 80011ba:	e00a      	b.n	80011d2 <HAL_RCC_OscConfig+0x376>
 80011bc:	f7ff fbb0 	bl	8000920 <HAL_GetTick>
 80011c0:	4602      	mov	r2, r0
 80011c2:	693b      	ldr	r3, [r7, #16]
 80011c4:	1ad3      	subs	r3, r2, r3
 80011c6:	f241 3288 	movw	r2, #5000	; 0x1388
 80011ca:	4293      	cmp	r3, r2
 80011cc:	d901      	bls.n	80011d2 <HAL_RCC_OscConfig+0x376>
 80011ce:	2303      	movs	r3, #3
 80011d0:	e0b5      	b.n	800133e <HAL_RCC_OscConfig+0x4e2>
 80011d2:	4b3e      	ldr	r3, [pc, #248]	; (80012cc <HAL_RCC_OscConfig+0x470>)
 80011d4:	6f1b      	ldr	r3, [r3, #112]	; 0x70
 80011d6:	f003 0302 	and.w	r3, r3, #2
 80011da:	2b00      	cmp	r3, #0
 80011dc:	d1ee      	bne.n	80011bc <HAL_RCC_OscConfig+0x360>
 80011de:	7dfb      	ldrb	r3, [r7, #23]
 80011e0:	2b01      	cmp	r3, #1
 80011e2:	d105      	bne.n	80011f0 <HAL_RCC_OscConfig+0x394>
 80011e4:	4b39      	ldr	r3, [pc, #228]	; (80012cc <HAL_RCC_OscConfig+0x470>)
 80011e6:	6c1b      	ldr	r3, [r3, #64]	; 0x40
 80011e8:	4a38      	ldr	r2, [pc, #224]	; (80012cc <HAL_RCC_OscConfig+0x470>)
 80011ea:	f023 5380 	bic.w	r3, r3, #268435456	; 0x10000000
 80011ee:	6413      	str	r3, [r2, #64]	; 0x40
 80011f0:	687b      	ldr	r3, [r7, #4]
 80011f2:	699b      	ldr	r3, [r3, #24]
 80011f4:	2b00      	cmp	r3, #0
 80011f6:	f000 80a1 	beq.w	800133c <HAL_RCC_OscConfig+0x4e0>
 80011fa:	4b34      	ldr	r3, [pc, #208]	; (80012cc <HAL_RCC_OscConfig+0x470>)
 80011fc:	689b      	ldr	r3, [r3, #8]
 80011fe:	f003 030c 	and.w	r3, r3, #12
 8001202:	2b08      	cmp	r3, #8
 8001204:	d05c      	beq.n	80012c0 <HAL_RCC_OscConfig+0x464>
 8001206:	687b      	ldr	r3, [r7, #4]
 8001208:	699b      	ldr	r3, [r3, #24]
 800120a:	2b02      	cmp	r3, #2
 800120c:	d141      	bne.n	8001292 <HAL_RCC_OscConfig+0x436>
 800120e:	4b31      	ldr	r3, [pc, #196]	; (80012d4 <HAL_RCC_OscConfig+0x478>)
 8001210:	2200      	movs	r2, #0
 8001212:	601a      	str	r2, [r3, #0]
 8001214:	f7ff fb84 	bl	8000920 <HAL_GetTick>
 8001218:	6138      	str	r0, [r7, #16]
 800121a:	e008      	b.n	800122e <HAL_RCC_OscConfig+0x3d2>
 800121c:	f7ff fb80 	bl	8000920 <HAL_GetTick>
 8001220:	4602      	mov	r2, r0
 8001222:	693b      	ldr	r3, [r7, #16]
 8001224:	1ad3      	subs	r3, r2, r3
 8001226:	2b02      	cmp	r3, #2
 8001228:	d901      	bls.n	800122e <HAL_RCC_OscConfig+0x3d2>
 800122a:	2303      	movs	r3, #3
 800122c:	e087      	b.n	800133e <HAL_RCC_OscConfig+0x4e2>
 800122e:	4b27      	ldr	r3, [pc, #156]	; (80012cc <HAL_RCC_OscConfig+0x470>)
 8001230:	681b      	ldr	r3, [r3, #0]
 8001232:	f003 7300 	and.w	r3, r3, #33554432	; 0x2000000
 8001236:	2b00      	cmp	r3, #0
 8001238:	d1f0      	bne.n	800121c <HAL_RCC_OscConfig+0x3c0>
 800123a:	687b      	ldr	r3, [r7, #4]
 800123c:	69da      	ldr	r2, [r3, #28]
 800123e:	687b      	ldr	r3, [r7, #4]
 8001240:	6a1b      	ldr	r3, [r3, #32]
 8001242:	431a      	orrs	r2, r3
 8001244:	687b      	ldr	r3, [r7, #4]
 8001246:	6a5b      	ldr	r3, [r3, #36]	; 0x24
 8001248:	019b      	lsls	r3, r3, #6
 800124a:	431a      	orrs	r2, r3
 800124c:	687b      	ldr	r3, [r7, #4]
 800124e:	6a9b      	ldr	r3, [r3, #40]	; 0x28
 8001250:	085b      	lsrs	r3, r3, #1
 8001252:	3b01      	subs	r3, #1
 8001254:	041b      	lsls	r3, r3, #16
 8001256:	431a      	orrs	r2, r3
 8001258:	687b      	ldr	r3, [r7, #4]
 800125a:	6adb      	ldr	r3, [r3, #44]	; 0x2c
 800125c:	061b      	lsls	r3, r3, #24
 800125e:	491b      	ldr	r1, [pc, #108]	; (80012cc <HAL_RCC_OscConfig+0x470>)
 8001260:	4313      	orrs	r3, r2
 8001262:	604b      	str	r3, [r1, #4]
 8001264:	4b1b      	ldr	r3, [pc, #108]	; (80012d4 <HAL_RCC_OscConfig+0x478>)
 8001266:	2201      	movs	r2, #1
 8001268:	601a      	str	r2, [r3, #0]
 800126a:	f7ff fb59 	bl	8000920 <HAL_GetTick>
 800126e:	6138      	str	r0, [r7, #16]
 8001270:	e008      	b.n	8001284 <HAL_RCC_OscConfig+0x428>
 8001272:	f7ff fb55 	bl	8000920 <HAL_GetTick>
 8001276:	4602      	mov	r2, r0
 8001278:	693b      	ldr	r3, [r7, #16]
 800127a:	1ad3      	subs	r3, r2, r3
 800127c:	2b02      	cmp	r3, #2
 800127e:	d901      	bls.n	8001284 <HAL_RCC_OscConfig+0x428>
 8001280:	2303      	movs	r3, #3
 8001282:	e05c      	b.n	800133e <HAL_RCC_OscConfig+0x4e2>
 8001284:	4b11      	ldr	r3, [pc, #68]	; (80012cc <HAL_RCC_OscConfig+0x470>)
 8001286:	681b      	ldr	r3, [r3, #0]
 8001288:	f003 7300 	and.w	r3, r3, #33554432	; 0x2000000
 800128c:	2b00      	cmp	r3, #0
 800128e:	d0f0      	beq.n	8001272 <HAL_RCC_OscConfig+0x416>
 8001290:	e054      	b.n	800133c <HAL_RCC_OscConfig+0x4e0>
 8001292:	4b10      	ldr	r3, [pc, #64]	; (80012d4 <HAL_RCC_OscConfig+0x478>)
 8001294:	2200      	movs	r2, #0
 8001296:	601a      	str	r2, [r3, #0]
 8001298:	f7ff fb42 	bl	8000920 <HAL_GetTick>
 800129c:	6138      	str	r0, [r7, #16]
 800129e:	e008      	b.n	80012b2 <HAL_RCC_OscConfig+0x456>
 80012a0:	f7ff fb3e 	bl	8000920 <HAL_GetTick>
 80012a4:	4602      	mov	r2, r0
 80012a6:	693b      	ldr	r3, [r7, #16]
 80012a8:	1ad3      	subs	r3, r2, r3
 80012aa:	2b02      	cmp	r3, #2
 80012ac:	d901      	bls.n	80012b2 <HAL_RCC_OscConfig+0x456>
 80012ae:	2303      	movs	r3, #3
 80012b0:	e045      	b.n	800133e <HAL_RCC_OscConfig+0x4e2>
 80012b2:	4b06      	ldr	r3, [pc, #24]	; (80012cc <HAL_RCC_OscConfig+0x470>)
 80012b4:	681b      	ldr	r3, [r3, #0]
 80012b6:	f003 7300 	and.w	r3, r3, #33554432	; 0x2000000
 80012ba:	2b00      	cmp	r3, #0
 80012bc:	d1f0      	bne.n	80012a0 <HAL_RCC_OscConfig+0x444>
 80012be:	e03d      	b.n	800133c <HAL_RCC_OscConfig+0x4e0>
 80012c0:	687b      	ldr	r3, [r7, #4]
 80012c2:	699b      	ldr	r3, [r3, #24]
 80012c4:	2b01      	cmp	r3, #1
 80012c6:	d107      	bne.n	80012d8 <HAL_RCC_OscConfig+0x47c>
 80012c8:	2301      	movs	r3, #1
 80012ca:	e038      	b.n	800133e <HAL_RCC_OscConfig+0x4e2>
 80012cc:	40023800 	.word	0x40023800
 80012d0:	40007000 	.word	0x40007000
 80012d4:	42470060 	.word	0x42470060
 80012d8:	4b1b      	ldr	r3, [pc, #108]	; (8001348 <HAL_RCC_OscConfig+0x4ec>)
 80012da:	685b      	ldr	r3, [r3, #4]
 80012dc:	60fb      	str	r3, [r7, #12]
 80012de:	687b      	ldr	r3, [r7, #4]
 80012e0:	699b      	ldr	r3, [r3, #24]
 80012e2:	2b01      	cmp	r3, #1
 80012e4:	d028      	beq.n	8001338 <HAL_RCC_OscConfig+0x4dc>
 80012e6:	68fb      	ldr	r3, [r7, #12]
 80012e8:	f403 0280 	and.w	r2, r3, #4194304	; 0x400000
 80012ec:	687b      	ldr	r3, [r7, #4]
 80012ee:	69db      	ldr	r3, [r3, #28]
 80012f0:	429a      	cmp	r2, r3
 80012f2:	d121      	bne.n	8001338 <HAL_RCC_OscConfig+0x4dc>
 80012f4:	68fb      	ldr	r3, [r7, #12]
 80012f6:	f003 023f 	and.w	r2, r3, #63	; 0x3f
 80012fa:	687b      	ldr	r3, [r7, #4]
 80012fc:	6a1b      	ldr	r3, [r3, #32]
 80012fe:	429a      	cmp	r2, r3
 8001300:	d11a      	bne.n	8001338 <HAL_RCC_OscConfig+0x4dc>
 8001302:	68fa      	ldr	r2, [r7, #12]
 8001304:	f647 73c0 	movw	r3, #32704	; 0x7fc0
 8001308:	4013      	ands	r3, r2
 800130a:	687a      	ldr	r2, [r7, #4]
 800130c:	6a52      	ldr	r2, [r2, #36]	; 0x24
 800130e:	0192      	lsls	r2, r2, #6
 8001310:	4293      	cmp	r3, r2
 8001312:	d111      	bne.n	8001338 <HAL_RCC_OscConfig+0x4dc>
 8001314:	68fb      	ldr	r3, [r7, #12]
 8001316:	f403 3240 	and.w	r2, r3, #196608	; 0x30000
 800131a:	687b      	ldr	r3, [r7, #4]
 800131c:	6a9b      	ldr	r3, [r3, #40]	; 0x28
 800131e:	085b      	lsrs	r3, r3, #1
 8001320:	3b01      	subs	r3, #1
 8001322:	041b      	lsls	r3, r3, #16
 8001324:	429a      	cmp	r2, r3
 8001326:	d107      	bne.n	8001338 <HAL_RCC_OscConfig+0x4dc>
 8001328:	68fb      	ldr	r3, [r7, #12]
 800132a:	f003 6270 	and.w	r2, r3, #251658240	; 0xf000000
 800132e:	687b      	ldr	r3, [r7, #4]
 8001330:	6adb      	ldr	r3, [r3, #44]	; 0x2c
 8001332:	061b      	lsls	r3, r3, #24
 8001334:	429a      	cmp	r2, r3
 8001336:	d001      	beq.n	800133c <HAL_RCC_OscConfig+0x4e0>
 8001338:	2301      	movs	r3, #1
 800133a:	e000      	b.n	800133e <HAL_RCC_OscConfig+0x4e2>
 800133c:	2300      	movs	r3, #0
 800133e:	4618      	mov	r0, r3
 8001340:	3718      	adds	r7, #24
 8001342:	46bd      	mov	sp, r7
 8001344:	bd80      	pop	{r7, pc}
 8001346:	bf00      	nop
 8001348:	40023800 	.word	0x40023800

0800134c <HAL_RCC_ClockConfig>:
 800134c:	b580      	push	{r7, lr}
 800134e:	b084      	sub	sp, #16
 8001350:	af00      	add	r7, sp, #0
 8001352:	6078      	str	r0, [r7, #4]
 8001354:	6039      	str	r1, [r7, #0]
 8001356:	687b      	ldr	r3, [r7, #4]
 8001358:	2b00      	cmp	r3, #0
 800135a:	d101      	bne.n	8001360 <HAL_RCC_ClockConfig+0x14>
 800135c:	2301      	movs	r3, #1
 800135e:	e0cc      	b.n	80014fa <HAL_RCC_ClockConfig+0x1ae>
 8001360:	4b68      	ldr	r3, [pc, #416]	; (8001504 <HAL_RCC_ClockConfig+0x1b8>)
 8001362:	681b      	ldr	r3, [r3, #0]
 8001364:	f003 030f 	and.w	r3, r3, #15
 8001368:	683a      	ldr	r2, [r7, #0]
 800136a:	429a      	cmp	r2, r3
 800136c:	d90c      	bls.n	8001388 <HAL_RCC_ClockConfig+0x3c>
 800136e:	4b65      	ldr	r3, [pc, #404]	; (8001504 <HAL_RCC_ClockConfig+0x1b8>)
 8001370:	683a      	ldr	r2, [r7, #0]
 8001372:	b2d2      	uxtb	r2, r2
 8001374:	701a      	strb	r2, [r3, #0]
 8001376:	4b63      	ldr	r3, [pc, #396]	; (8001504 <HAL_RCC_ClockConfig+0x1b8>)
 8001378:	681b      	ldr	r3, [r3, #0]
 800137a:	f003 030f 	and.w	r3, r3, #15
 800137e:	683a      	ldr	r2, [r7, #0]
 8001380:	429a      	cmp	r2, r3
 8001382:	d001      	beq.n	8001388 <HAL_RCC_ClockConfig+0x3c>
 8001384:	2301      	movs	r3, #1
 8001386:	e0b8      	b.n	80014fa <HAL_RCC_ClockConfig+0x1ae>
 8001388:	687b      	ldr	r3, [r7, #4]
 800138a:	681b      	ldr	r3, [r3, #0]
 800138c:	f003 0302 	and.w	r3, r3, #2
 8001390:	2b00      	cmp	r3, #0
 8001392:	d020      	beq.n	80013d6 <HAL_RCC_ClockConfig+0x8a>
 8001394:	687b      	ldr	r3, [r7, #4]
 8001396:	681b      	ldr	r3, [r3, #0]
 8001398:	f003 0304 	and.w	r3, r3, #4
 800139c:	2b00      	cmp	r3, #0
 800139e:	d005      	beq.n	80013ac <HAL_RCC_ClockConfig+0x60>
 80013a0:	4b59      	ldr	r3, [pc, #356]	; (8001508 <HAL_RCC_ClockConfig+0x1bc>)
 80013a2:	689b      	ldr	r3, [r3, #8]
 80013a4:	4a58      	ldr	r2, [pc, #352]	; (8001508 <HAL_RCC_ClockConfig+0x1bc>)
 80013a6:	f443 53e0 	orr.w	r3, r3, #7168	; 0x1c00
 80013aa:	6093      	str	r3, [r2, #8]
 80013ac:	687b      	ldr	r3, [r7, #4]
 80013ae:	681b      	ldr	r3, [r3, #0]
 80013b0:	f003 0308 	and.w	r3, r3, #8
 80013b4:	2b00      	cmp	r3, #0
 80013b6:	d005      	beq.n	80013c4 <HAL_RCC_ClockConfig+0x78>
 80013b8:	4b53      	ldr	r3, [pc, #332]	; (8001508 <HAL_RCC_ClockConfig+0x1bc>)
 80013ba:	689b      	ldr	r3, [r3, #8]
 80013bc:	4a52      	ldr	r2, [pc, #328]	; (8001508 <HAL_RCC_ClockConfig+0x1bc>)
 80013be:	f443 4360 	orr.w	r3, r3, #57344	; 0xe000
 80013c2:	6093      	str	r3, [r2, #8]
 80013c4:	4b50      	ldr	r3, [pc, #320]	; (8001508 <HAL_RCC_ClockConfig+0x1bc>)
 80013c6:	689b      	ldr	r3, [r3, #8]
 80013c8:	f023 02f0 	bic.w	r2, r3, #240	; 0xf0
 80013cc:	687b      	ldr	r3, [r7, #4]
 80013ce:	689b      	ldr	r3, [r3, #8]
 80013d0:	494d      	ldr	r1, [pc, #308]	; (8001508 <HAL_RCC_ClockConfig+0x1bc>)
 80013d2:	4313      	orrs	r3, r2
 80013d4:	608b      	str	r3, [r1, #8]
 80013d6:	687b      	ldr	r3, [r7, #4]
 80013d8:	681b      	ldr	r3, [r3, #0]
 80013da:	f003 0301 	and.w	r3, r3, #1
 80013de:	2b00      	cmp	r3, #0
 80013e0:	d044      	beq.n	800146c <HAL_RCC_ClockConfig+0x120>
 80013e2:	687b      	ldr	r3, [r7, #4]
 80013e4:	685b      	ldr	r3, [r3, #4]
 80013e6:	2b01      	cmp	r3, #1
 80013e8:	d107      	bne.n	80013fa <HAL_RCC_ClockConfig+0xae>
 80013ea:	4b47      	ldr	r3, [pc, #284]	; (8001508 <HAL_RCC_ClockConfig+0x1bc>)
 80013ec:	681b      	ldr	r3, [r3, #0]
 80013ee:	f403 3300 	and.w	r3, r3, #131072	; 0x20000
 80013f2:	2b00      	cmp	r3, #0
 80013f4:	d119      	bne.n	800142a <HAL_RCC_ClockConfig+0xde>
 80013f6:	2301      	movs	r3, #1
 80013f8:	e07f      	b.n	80014fa <HAL_RCC_ClockConfig+0x1ae>
 80013fa:	687b      	ldr	r3, [r7, #4]
 80013fc:	685b      	ldr	r3, [r3, #4]
 80013fe:	2b02      	cmp	r3, #2
 8001400:	d003      	beq.n	800140a <HAL_RCC_ClockConfig+0xbe>
 8001402:	687b      	ldr	r3, [r7, #4]
 8001404:	685b      	ldr	r3, [r3, #4]
 8001406:	2b03      	cmp	r3, #3
 8001408:	d107      	bne.n	800141a <HAL_RCC_ClockConfig+0xce>
 800140a:	4b3f      	ldr	r3, [pc, #252]	; (8001508 <HAL_RCC_ClockConfig+0x1bc>)
 800140c:	681b      	ldr	r3, [r3, #0]
 800140e:	f003 7300 	and.w	r3, r3, #33554432	; 0x2000000
 8001412:	2b00      	cmp	r3, #0
 8001414:	d109      	bne.n	800142a <HAL_RCC_ClockConfig+0xde>
 8001416:	2301      	movs	r3, #1
 8001418:	e06f      	b.n	80014fa <HAL_RCC_ClockConfig+0x1ae>
 800141a:	4b3b      	ldr	r3, [pc, #236]	; (8001508 <HAL_RCC_ClockConfig+0x1bc>)
 800141c:	681b      	ldr	r3, [r3, #0]
 800141e:	f003 0302 	and.w	r3, r3, #2
 8001422:	2b00      	cmp	r3, #0
 8001424:	d101      	bne.n	800142a <HAL_RCC_ClockConfig+0xde>
 8001426:	2301      	movs	r3, #1
 8001428:	e067      	b.n	80014fa <HAL_RCC_ClockConfig+0x1ae>
 800142a:	4b37      	ldr	r3, [pc, #220]	; (8001508 <HAL_RCC_ClockConfig+0x1bc>)
 800142c:	689b      	ldr	r3, [r3, #8]
 800142e:	f023 0203 	bic.w	r2, r3, #3
 8001432:	687b      	ldr	r3, [r7, #4]
 8001434:	685b      	ldr	r3, [r3, #4]
 8001436:	4934      	ldr	r1, [pc, #208]	; (8001508 <HAL_RCC_ClockConfig+0x1bc>)
 8001438:	4313      	orrs	r3, r2
 800143a:	608b      	str	r3, [r1, #8]
 800143c:	f7ff fa70 	bl	8000920 <HAL_GetTick>
 8001440:	60f8      	str	r0, [r7, #12]
 8001442:	e00a      	b.n	800145a <HAL_RCC_ClockConfig+0x10e>
 8001444:	f7ff fa6c 	bl	8000920 <HAL_GetTick>
 8001448:	4602      	mov	r2, r0
 800144a:	68fb      	ldr	r3, [r7, #12]
 800144c:	1ad3      	subs	r3, r2, r3
 800144e:	f241 3288 	movw	r2, #5000	; 0x1388
 8001452:	4293      	cmp	r3, r2
 8001454:	d901      	bls.n	800145a <HAL_RCC_ClockConfig+0x10e>
 8001456:	2303      	movs	r3, #3
 8001458:	e04f      	b.n	80014fa <HAL_RCC_ClockConfig+0x1ae>
 800145a:	4b2b      	ldr	r3, [pc, #172]	; (8001508 <HAL_RCC_ClockConfig+0x1bc>)
 800145c:	689b      	ldr	r3, [r3, #8]
 800145e:	f003 020c 	and.w	r2, r3, #12
 8001462:	687b      	ldr	r3, [r7, #4]
 8001464:	685b      	ldr	r3, [r3, #4]
 8001466:	009b      	lsls	r3, r3, #2
 8001468:	429a      	cmp	r2, r3
 800146a:	d1eb      	bne.n	8001444 <HAL_RCC_ClockConfig+0xf8>
 800146c:	4b25      	ldr	r3, [pc, #148]	; (8001504 <HAL_RCC_ClockConfig+0x1b8>)
 800146e:	681b      	ldr	r3, [r3, #0]
 8001470:	f003 030f 	and.w	r3, r3, #15
 8001474:	683a      	ldr	r2, [r7, #0]
 8001476:	429a      	cmp	r2, r3
 8001478:	d20c      	bcs.n	8001494 <HAL_RCC_ClockConfig+0x148>
 800147a:	4b22      	ldr	r3, [pc, #136]	; (8001504 <HAL_RCC_ClockConfig+0x1b8>)
 800147c:	683a      	ldr	r2, [r7, #0]
 800147e:	b2d2      	uxtb	r2, r2
 8001480:	701a      	strb	r2, [r3, #0]
 8001482:	4b20      	ldr	r3, [pc, #128]	; (8001504 <HAL_RCC_ClockConfig+0x1b8>)
 8001484:	681b      	ldr	r3, [r3, #0]
 8001486:	f003 030f 	and.w	r3, r3, #15
 800148a:	683a      	ldr	r2, [r7, #0]
 800148c:	429a      	cmp	r2, r3
 800148e:	d001      	beq.n	8001494 <HAL_RCC_ClockConfig+0x148>
 8001490:	2301      	movs	r3, #1
 8001492:	e032      	b.n	80014fa <HAL_RCC_ClockConfig+0x1ae>
 8001494:	687b      	ldr	r3, [r7, #4]
 8001496:	681b      	ldr	r3, [r3, #0]
 8001498:	f003 0304 	and.w	r3, r3, #4
 800149c:	2b00      	cmp	r3, #0
 800149e:	d008      	beq.n	80014b2 <HAL_RCC_ClockConfig+0x166>
 80014a0:	4b19      	ldr	r3, [pc, #100]	; (8001508 <HAL_RCC_ClockConfig+0x1bc>)
 80014a2:	689b      	ldr	r3, [r3, #8]
 80014a4:	f423 52e0 	bic.w	r2, r3, #7168	; 0x1c00
 80014a8:	687b      	ldr	r3, [r7, #4]
 80014aa:	68db      	ldr	r3, [r3, #12]
 80014ac:	4916      	ldr	r1, [pc, #88]	; (8001508 <HAL_RCC_ClockConfig+0x1bc>)
 80014ae:	4313      	orrs	r3, r2
 80014b0:	608b      	str	r3, [r1, #8]
 80014b2:	687b      	ldr	r3, [r7, #4]
 80014b4:	681b      	ldr	r3, [r3, #0]
 80014b6:	f003 0308 	and.w	r3, r3, #8
 80014ba:	2b00      	cmp	r3, #0
 80014bc:	d009      	beq.n	80014d2 <HAL_RCC_ClockConfig+0x186>
 80014be:	4b12      	ldr	r3, [pc, #72]	; (8001508 <HAL_RCC_ClockConfig+0x1bc>)
 80014c0:	689b      	ldr	r3, [r3, #8]
 80014c2:	f423 4260 	bic.w	r2, r3, #57344	; 0xe000
 80014c6:	687b      	ldr	r3, [r7, #4]
 80014c8:	691b      	ldr	r3, [r3, #16]
 80014ca:	00db      	lsls	r3, r3, #3
 80014cc:	490e      	ldr	r1, [pc, #56]	; (8001508 <HAL_RCC_ClockConfig+0x1bc>)
 80014ce:	4313      	orrs	r3, r2
 80014d0:	608b      	str	r3, [r1, #8]
 80014d2:	f000 f821 	bl	8001518 <HAL_RCC_GetSysClockFreq>
 80014d6:	4602      	mov	r2, r0
 80014d8:	4b0b      	ldr	r3, [pc, #44]	; (8001508 <HAL_RCC_ClockConfig+0x1bc>)
 80014da:	689b      	ldr	r3, [r3, #8]
 80014dc:	091b      	lsrs	r3, r3, #4
 80014de:	f003 030f 	and.w	r3, r3, #15
 80014e2:	490a      	ldr	r1, [pc, #40]	; (800150c <HAL_RCC_ClockConfig+0x1c0>)
 80014e4:	5ccb      	ldrb	r3, [r1, r3]
 80014e6:	fa22 f303 	lsr.w	r3, r2, r3
 80014ea:	4a09      	ldr	r2, [pc, #36]	; (8001510 <HAL_RCC_ClockConfig+0x1c4>)
 80014ec:	6013      	str	r3, [r2, #0]
 80014ee:	4b09      	ldr	r3, [pc, #36]	; (8001514 <HAL_RCC_ClockConfig+0x1c8>)
 80014f0:	681b      	ldr	r3, [r3, #0]
 80014f2:	4618      	mov	r0, r3
 80014f4:	f7ff f9d0 	bl	8000898 <HAL_InitTick>
 80014f8:	2300      	movs	r3, #0
 80014fa:	4618      	mov	r0, r3
 80014fc:	3710      	adds	r7, #16
 80014fe:	46bd      	mov	sp, r7
 8001500:	bd80      	pop	{r7, pc}
 8001502:	bf00      	nop
 8001504:	40023c00 	.word	0x40023c00
 8001508:	40023800 	.word	0x40023800
 800150c:	08001fa4 	.word	0x08001fa4
 8001510:	20000000 	.word	0x20000000
 8001514:	20000004 	.word	0x20000004

08001518 <HAL_RCC_GetSysClockFreq>:
 8001518:	e92d 4fb0 	stmdb	sp!, {r4, r5, r7, r8, r9, sl, fp, lr}
 800151c:	b090      	sub	sp, #64	; 0x40
 800151e:	af00      	add	r7, sp, #0
 8001520:	2300      	movs	r3, #0
 8001522:	637b      	str	r3, [r7, #52]	; 0x34
 8001524:	2300      	movs	r3, #0
 8001526:	63fb      	str	r3, [r7, #60]	; 0x3c
 8001528:	2300      	movs	r3, #0
 800152a:	633b      	str	r3, [r7, #48]	; 0x30
 800152c:	2300      	movs	r3, #0
 800152e:	63bb      	str	r3, [r7, #56]	; 0x38
 8001530:	4b59      	ldr	r3, [pc, #356]	; (8001698 <HAL_RCC_GetSysClockFreq+0x180>)
 8001532:	689b      	ldr	r3, [r3, #8]
 8001534:	f003 030c 	and.w	r3, r3, #12
 8001538:	2b08      	cmp	r3, #8
 800153a:	d00d      	beq.n	8001558 <HAL_RCC_GetSysClockFreq+0x40>
 800153c:	2b08      	cmp	r3, #8
 800153e:	f200 80a1 	bhi.w	8001684 <HAL_RCC_GetSysClockFreq+0x16c>
 8001542:	2b00      	cmp	r3, #0
 8001544:	d002      	beq.n	800154c <HAL_RCC_GetSysClockFreq+0x34>
 8001546:	2b04      	cmp	r3, #4
 8001548:	d003      	beq.n	8001552 <HAL_RCC_GetSysClockFreq+0x3a>
 800154a:	e09b      	b.n	8001684 <HAL_RCC_GetSysClockFreq+0x16c>
 800154c:	4b53      	ldr	r3, [pc, #332]	; (800169c <HAL_RCC_GetSysClockFreq+0x184>)
 800154e:	63bb      	str	r3, [r7, #56]	; 0x38
 8001550:	e09b      	b.n	800168a <HAL_RCC_GetSysClockFreq+0x172>
 8001552:	4b53      	ldr	r3, [pc, #332]	; (80016a0 <HAL_RCC_GetSysClockFreq+0x188>)
 8001554:	63bb      	str	r3, [r7, #56]	; 0x38
 8001556:	e098      	b.n	800168a <HAL_RCC_GetSysClockFreq+0x172>
 8001558:	4b4f      	ldr	r3, [pc, #316]	; (8001698 <HAL_RCC_GetSysClockFreq+0x180>)
 800155a:	685b      	ldr	r3, [r3, #4]
 800155c:	f003 033f 	and.w	r3, r3, #63	; 0x3f
 8001560:	637b      	str	r3, [r7, #52]	; 0x34
 8001562:	4b4d      	ldr	r3, [pc, #308]	; (8001698 <HAL_RCC_GetSysClockFreq+0x180>)
 8001564:	685b      	ldr	r3, [r3, #4]
 8001566:	f403 0380 	and.w	r3, r3, #4194304	; 0x400000
 800156a:	2b00      	cmp	r3, #0
 800156c:	d028      	beq.n	80015c0 <HAL_RCC_GetSysClockFreq+0xa8>
 800156e:	4b4a      	ldr	r3, [pc, #296]	; (8001698 <HAL_RCC_GetSysClockFreq+0x180>)
 8001570:	685b      	ldr	r3, [r3, #4]
 8001572:	099b      	lsrs	r3, r3, #6
 8001574:	2200      	movs	r2, #0
 8001576:	623b      	str	r3, [r7, #32]
 8001578:	627a      	str	r2, [r7, #36]	; 0x24
 800157a:	6a3b      	ldr	r3, [r7, #32]
 800157c:	f3c3 0008 	ubfx	r0, r3, #0, #9
 8001580:	2100      	movs	r1, #0
 8001582:	4b47      	ldr	r3, [pc, #284]	; (80016a0 <HAL_RCC_GetSysClockFreq+0x188>)
 8001584:	fb03 f201 	mul.w	r2, r3, r1
 8001588:	2300      	movs	r3, #0
 800158a:	fb00 f303 	mul.w	r3, r0, r3
 800158e:	4413      	add	r3, r2
 8001590:	4a43      	ldr	r2, [pc, #268]	; (80016a0 <HAL_RCC_GetSysClockFreq+0x188>)
 8001592:	fba0 1202 	umull	r1, r2, r0, r2
 8001596:	62fa      	str	r2, [r7, #44]	; 0x2c
 8001598:	460a      	mov	r2, r1
 800159a:	62ba      	str	r2, [r7, #40]	; 0x28
 800159c:	6afa      	ldr	r2, [r7, #44]	; 0x2c
 800159e:	4413      	add	r3, r2
 80015a0:	62fb      	str	r3, [r7, #44]	; 0x2c
 80015a2:	6b7b      	ldr	r3, [r7, #52]	; 0x34
 80015a4:	2200      	movs	r2, #0
 80015a6:	61bb      	str	r3, [r7, #24]
 80015a8:	61fa      	str	r2, [r7, #28]
 80015aa:	e9d7 2306 	ldrd	r2, r3, [r7, #24]
 80015ae:	e9d7 010a 	ldrd	r0, r1, [r7, #40]	; 0x28
 80015b2:	f7fe fe1b 	bl	80001ec <__aeabi_uldivmod>
 80015b6:	4602      	mov	r2, r0
 80015b8:	460b      	mov	r3, r1
 80015ba:	4613      	mov	r3, r2
 80015bc:	63fb      	str	r3, [r7, #60]	; 0x3c
 80015be:	e053      	b.n	8001668 <HAL_RCC_GetSysClockFreq+0x150>
 80015c0:	4b35      	ldr	r3, [pc, #212]	; (8001698 <HAL_RCC_GetSysClockFreq+0x180>)
 80015c2:	685b      	ldr	r3, [r3, #4]
 80015c4:	099b      	lsrs	r3, r3, #6
 80015c6:	2200      	movs	r2, #0
 80015c8:	613b      	str	r3, [r7, #16]
 80015ca:	617a      	str	r2, [r7, #20]
 80015cc:	693b      	ldr	r3, [r7, #16]
 80015ce:	f3c3 0a08 	ubfx	sl, r3, #0, #9
 80015d2:	f04f 0b00 	mov.w	fp, #0
 80015d6:	4652      	mov	r2, sl
 80015d8:	465b      	mov	r3, fp
 80015da:	f04f 0000 	mov.w	r0, #0
 80015de:	f04f 0100 	mov.w	r1, #0
 80015e2:	0159      	lsls	r1, r3, #5
 80015e4:	ea41 61d2 	orr.w	r1, r1, r2, lsr #27
 80015e8:	0150      	lsls	r0, r2, #5
 80015ea:	4602      	mov	r2, r0
 80015ec:	460b      	mov	r3, r1
 80015ee:	ebb2 080a 	subs.w	r8, r2, sl
 80015f2:	eb63 090b 	sbc.w	r9, r3, fp
 80015f6:	f04f 0200 	mov.w	r2, #0
 80015fa:	f04f 0300 	mov.w	r3, #0
 80015fe:	ea4f 1389 	mov.w	r3, r9, lsl #6
 8001602:	ea43 6398 	orr.w	r3, r3, r8, lsr #26
 8001606:	ea4f 1288 	mov.w	r2, r8, lsl #6
 800160a:	ebb2 0408 	subs.w	r4, r2, r8
 800160e:	eb63 0509 	sbc.w	r5, r3, r9
 8001612:	f04f 0200 	mov.w	r2, #0
 8001616:	f04f 0300 	mov.w	r3, #0
 800161a:	00eb      	lsls	r3, r5, #3
 800161c:	ea43 7354 	orr.w	r3, r3, r4, lsr #29
 8001620:	00e2      	lsls	r2, r4, #3
 8001622:	4614      	mov	r4, r2
 8001624:	461d      	mov	r5, r3
 8001626:	eb14 030a 	adds.w	r3, r4, sl
 800162a:	603b      	str	r3, [r7, #0]
 800162c:	eb45 030b 	adc.w	r3, r5, fp
 8001630:	607b      	str	r3, [r7, #4]
 8001632:	f04f 0200 	mov.w	r2, #0
 8001636:	f04f 0300 	mov.w	r3, #0
 800163a:	e9d7 4500 	ldrd	r4, r5, [r7]
 800163e:	4629      	mov	r1, r5
 8001640:	028b      	lsls	r3, r1, #10
 8001642:	4621      	mov	r1, r4
 8001644:	ea43 5391 	orr.w	r3, r3, r1, lsr #22
 8001648:	4621      	mov	r1, r4
 800164a:	028a      	lsls	r2, r1, #10
 800164c:	4610      	mov	r0, r2
 800164e:	4619      	mov	r1, r3
 8001650:	6b7b      	ldr	r3, [r7, #52]	; 0x34
 8001652:	2200      	movs	r2, #0
 8001654:	60bb      	str	r3, [r7, #8]
 8001656:	60fa      	str	r2, [r7, #12]
 8001658:	e9d7 2302 	ldrd	r2, r3, [r7, #8]
 800165c:	f7fe fdc6 	bl	80001ec <__aeabi_uldivmod>
 8001660:	4602      	mov	r2, r0
 8001662:	460b      	mov	r3, r1
 8001664:	4613      	mov	r3, r2
 8001666:	63fb      	str	r3, [r7, #60]	; 0x3c
 8001668:	4b0b      	ldr	r3, [pc, #44]	; (8001698 <HAL_RCC_GetSysClockFreq+0x180>)
 800166a:	685b      	ldr	r3, [r3, #4]
 800166c:	0c1b      	lsrs	r3, r3, #16
 800166e:	f003 0303 	and.w	r3, r3, #3
 8001672:	3301      	adds	r3, #1
 8001674:	005b      	lsls	r3, r3, #1
 8001676:	633b      	str	r3, [r7, #48]	; 0x30
 8001678:	6bfa      	ldr	r2, [r7, #60]	; 0x3c
 800167a:	6b3b      	ldr	r3, [r7, #48]	; 0x30
 800167c:	fbb2 f3f3 	udiv	r3, r2, r3
 8001680:	63bb      	str	r3, [r7, #56]	; 0x38
 8001682:	e002      	b.n	800168a <HAL_RCC_GetSysClockFreq+0x172>
 8001684:	4b05      	ldr	r3, [pc, #20]	; (800169c <HAL_RCC_GetSysClockFreq+0x184>)
 8001686:	63bb      	str	r3, [r7, #56]	; 0x38
 8001688:	bf00      	nop
 800168a:	6bbb      	ldr	r3, [r7, #56]	; 0x38
 800168c:	4618      	mov	r0, r3
 800168e:	3740      	adds	r7, #64	; 0x40
 8001690:	46bd      	mov	sp, r7
 8001692:	e8bd 8fb0 	ldmia.w	sp!, {r4, r5, r7, r8, r9, sl, fp, pc}
 8001696:	bf00      	nop
 8001698:	40023800 	.word	0x40023800
 800169c:	00f42400 	.word	0x00f42400
 80016a0:	017d7840 	.word	0x017d7840

080016a4 <HAL_RCC_GetHCLKFreq>:
 80016a4:	b480      	push	{r7}
 80016a6:	af00      	add	r7, sp, #0
 80016a8:	4b03      	ldr	r3, [pc, #12]	; (80016b8 <HAL_RCC_GetHCLKFreq+0x14>)
 80016aa:	681b      	ldr	r3, [r3, #0]
 80016ac:	4618      	mov	r0, r3
 80016ae:	46bd      	mov	sp, r7
 80016b0:	f85d 7b04 	ldr.w	r7, [sp], #4
 80016b4:	4770      	bx	lr
 80016b6:	bf00      	nop
 80016b8:	20000000 	.word	0x20000000

080016bc <HAL_RCC_GetPCLK1Freq>:
 80016bc:	b580      	push	{r7, lr}
 80016be:	af00      	add	r7, sp, #0
 80016c0:	f7ff fff0 	bl	80016a4 <HAL_RCC_GetHCLKFreq>
 80016c4:	4602      	mov	r2, r0
 80016c6:	4b05      	ldr	r3, [pc, #20]	; (80016dc <HAL_RCC_GetPCLK1Freq+0x20>)
 80016c8:	689b      	ldr	r3, [r3, #8]
 80016ca:	0a9b      	lsrs	r3, r3, #10
 80016cc:	f003 0307 	and.w	r3, r3, #7
 80016d0:	4903      	ldr	r1, [pc, #12]	; (80016e0 <HAL_RCC_GetPCLK1Freq+0x24>)
 80016d2:	5ccb      	ldrb	r3, [r1, r3]
 80016d4:	fa22 f303 	lsr.w	r3, r2, r3
 80016d8:	4618      	mov	r0, r3
 80016da:	bd80      	pop	{r7, pc}
 80016dc:	40023800 	.word	0x40023800
 80016e0:	08001fb4 	.word	0x08001fb4

080016e4 <HAL_RCC_GetPCLK2Freq>:
 80016e4:	b580      	push	{r7, lr}
 80016e6:	af00      	add	r7, sp, #0
 80016e8:	f7ff ffdc 	bl	80016a4 <HAL_RCC_GetHCLKFreq>
 80016ec:	4602      	mov	r2, r0
 80016ee:	4b05      	ldr	r3, [pc, #20]	; (8001704 <HAL_RCC_GetPCLK2Freq+0x20>)
 80016f0:	689b      	ldr	r3, [r3, #8]
 80016f2:	0b5b      	lsrs	r3, r3, #13
 80016f4:	f003 0307 	and.w	r3, r3, #7
 80016f8:	4903      	ldr	r1, [pc, #12]	; (8001708 <HAL_RCC_GetPCLK2Freq+0x24>)
 80016fa:	5ccb      	ldrb	r3, [r1, r3]
 80016fc:	fa22 f303 	lsr.w	r3, r2, r3
 8001700:	4618      	mov	r0, r3
 8001702:	bd80      	pop	{r7, pc}
 8001704:	40023800 	.word	0x40023800
 8001708:	08001fb4 	.word	0x08001fb4

0800170c <HAL_UART_Init>:
 800170c:	b580      	push	{r7, lr}
 800170e:	b082      	sub	sp, #8
 8001710:	af00      	add	r7, sp, #0
 8001712:	6078      	str	r0, [r7, #4]
 8001714:	687b      	ldr	r3, [r7, #4]
 8001716:	2b00      	cmp	r3, #0
 8001718:	d101      	bne.n	800171e <HAL_UART_Init+0x12>
 800171a:	2301      	movs	r3, #1
 800171c:	e042      	b.n	80017a4 <HAL_UART_Init+0x98>
 800171e:	687b      	ldr	r3, [r7, #4]
 8001720:	f893 3041 	ldrb.w	r3, [r3, #65]	; 0x41
 8001724:	b2db      	uxtb	r3, r3
 8001726:	2b00      	cmp	r3, #0
 8001728:	d106      	bne.n	8001738 <HAL_UART_Init+0x2c>
 800172a:	687b      	ldr	r3, [r7, #4]
 800172c:	2200      	movs	r2, #0
 800172e:	f883 2040 	strb.w	r2, [r3, #64]	; 0x40
 8001732:	6878      	ldr	r0, [r7, #4]
 8001734:	f7ff f81c 	bl	8000770 <HAL_UART_MspInit>
 8001738:	687b      	ldr	r3, [r7, #4]
 800173a:	2224      	movs	r2, #36	; 0x24
 800173c:	f883 2041 	strb.w	r2, [r3, #65]	; 0x41
 8001740:	687b      	ldr	r3, [r7, #4]
 8001742:	681b      	ldr	r3, [r3, #0]
 8001744:	68da      	ldr	r2, [r3, #12]
 8001746:	687b      	ldr	r3, [r7, #4]
 8001748:	681b      	ldr	r3, [r3, #0]
 800174a:	f422 5200 	bic.w	r2, r2, #8192	; 0x2000
 800174e:	60da      	str	r2, [r3, #12]
 8001750:	6878      	ldr	r0, [r7, #4]
 8001752:	f000 f973 	bl	8001a3c <UART_SetConfig>
 8001756:	687b      	ldr	r3, [r7, #4]
 8001758:	681b      	ldr	r3, [r3, #0]
 800175a:	691a      	ldr	r2, [r3, #16]
 800175c:	687b      	ldr	r3, [r7, #4]
 800175e:	681b      	ldr	r3, [r3, #0]
 8001760:	f422 4290 	bic.w	r2, r2, #18432	; 0x4800
 8001764:	611a      	str	r2, [r3, #16]
 8001766:	687b      	ldr	r3, [r7, #4]
 8001768:	681b      	ldr	r3, [r3, #0]
 800176a:	695a      	ldr	r2, [r3, #20]
 800176c:	687b      	ldr	r3, [r7, #4]
 800176e:	681b      	ldr	r3, [r3, #0]
 8001770:	f022 022a 	bic.w	r2, r2, #42	; 0x2a
 8001774:	615a      	str	r2, [r3, #20]
 8001776:	687b      	ldr	r3, [r7, #4]
 8001778:	681b      	ldr	r3, [r3, #0]
 800177a:	68da      	ldr	r2, [r3, #12]
 800177c:	687b      	ldr	r3, [r7, #4]
 800177e:	681b      	ldr	r3, [r3, #0]
 8001780:	f442 5200 	orr.w	r2, r2, #8192	; 0x2000
 8001784:	60da      	str	r2, [r3, #12]
 8001786:	687b      	ldr	r3, [r7, #4]
 8001788:	2200      	movs	r2, #0
 800178a:	645a      	str	r2, [r3, #68]	; 0x44
 800178c:	687b      	ldr	r3, [r7, #4]
 800178e:	2220      	movs	r2, #32
 8001790:	f883 2041 	strb.w	r2, [r3, #65]	; 0x41
 8001794:	687b      	ldr	r3, [r7, #4]
 8001796:	2220      	movs	r2, #32
 8001798:	f883 2042 	strb.w	r2, [r3, #66]	; 0x42
 800179c:	687b      	ldr	r3, [r7, #4]
 800179e:	2200      	movs	r2, #0
 80017a0:	635a      	str	r2, [r3, #52]	; 0x34
 80017a2:	2300      	movs	r3, #0
 80017a4:	4618      	mov	r0, r3
 80017a6:	3708      	adds	r7, #8
 80017a8:	46bd      	mov	sp, r7
 80017aa:	bd80      	pop	{r7, pc}

080017ac <HAL_UART_Transmit>:
 80017ac:	b580      	push	{r7, lr}
 80017ae:	b08a      	sub	sp, #40	; 0x28
 80017b0:	af02      	add	r7, sp, #8
 80017b2:	60f8      	str	r0, [r7, #12]
 80017b4:	60b9      	str	r1, [r7, #8]
 80017b6:	603b      	str	r3, [r7, #0]
 80017b8:	4613      	mov	r3, r2
 80017ba:	80fb      	strh	r3, [r7, #6]
 80017bc:	2300      	movs	r3, #0
 80017be:	617b      	str	r3, [r7, #20]
 80017c0:	68fb      	ldr	r3, [r7, #12]
 80017c2:	f893 3041 	ldrb.w	r3, [r3, #65]	; 0x41
 80017c6:	b2db      	uxtb	r3, r3
 80017c8:	2b20      	cmp	r3, #32
 80017ca:	d175      	bne.n	80018b8 <HAL_UART_Transmit+0x10c>
 80017cc:	68bb      	ldr	r3, [r7, #8]
 80017ce:	2b00      	cmp	r3, #0
 80017d0:	d002      	beq.n	80017d8 <HAL_UART_Transmit+0x2c>
 80017d2:	88fb      	ldrh	r3, [r7, #6]
 80017d4:	2b00      	cmp	r3, #0
 80017d6:	d101      	bne.n	80017dc <HAL_UART_Transmit+0x30>
 80017d8:	2301      	movs	r3, #1
 80017da:	e06e      	b.n	80018ba <HAL_UART_Transmit+0x10e>
 80017dc:	68fb      	ldr	r3, [r7, #12]
 80017de:	2200      	movs	r2, #0
 80017e0:	645a      	str	r2, [r3, #68]	; 0x44
 80017e2:	68fb      	ldr	r3, [r7, #12]
 80017e4:	2221      	movs	r2, #33	; 0x21
 80017e6:	f883 2041 	strb.w	r2, [r3, #65]	; 0x41
 80017ea:	f7ff f899 	bl	8000920 <HAL_GetTick>
 80017ee:	6178      	str	r0, [r7, #20]
 80017f0:	68fb      	ldr	r3, [r7, #12]
 80017f2:	88fa      	ldrh	r2, [r7, #6]
 80017f4:	849a      	strh	r2, [r3, #36]	; 0x24
 80017f6:	68fb      	ldr	r3, [r7, #12]
 80017f8:	88fa      	ldrh	r2, [r7, #6]
 80017fa:	84da      	strh	r2, [r3, #38]	; 0x26
 80017fc:	68fb      	ldr	r3, [r7, #12]
 80017fe:	689b      	ldr	r3, [r3, #8]
 8001800:	f5b3 5f80 	cmp.w	r3, #4096	; 0x1000
 8001804:	d108      	bne.n	8001818 <HAL_UART_Transmit+0x6c>
 8001806:	68fb      	ldr	r3, [r7, #12]
 8001808:	691b      	ldr	r3, [r3, #16]
 800180a:	2b00      	cmp	r3, #0
 800180c:	d104      	bne.n	8001818 <HAL_UART_Transmit+0x6c>
 800180e:	2300      	movs	r3, #0
 8001810:	61fb      	str	r3, [r7, #28]
 8001812:	68bb      	ldr	r3, [r7, #8]
 8001814:	61bb      	str	r3, [r7, #24]
 8001816:	e003      	b.n	8001820 <HAL_UART_Transmit+0x74>
 8001818:	68bb      	ldr	r3, [r7, #8]
 800181a:	61fb      	str	r3, [r7, #28]
 800181c:	2300      	movs	r3, #0
 800181e:	61bb      	str	r3, [r7, #24]
 8001820:	e02e      	b.n	8001880 <HAL_UART_Transmit+0xd4>
 8001822:	683b      	ldr	r3, [r7, #0]
 8001824:	9300      	str	r3, [sp, #0]
 8001826:	697b      	ldr	r3, [r7, #20]
 8001828:	2200      	movs	r2, #0
 800182a:	2180      	movs	r1, #128	; 0x80
 800182c:	68f8      	ldr	r0, [r7, #12]
 800182e:	f000 f848 	bl	80018c2 <UART_WaitOnFlagUntilTimeout>
 8001832:	4603      	mov	r3, r0
 8001834:	2b00      	cmp	r3, #0
 8001836:	d005      	beq.n	8001844 <HAL_UART_Transmit+0x98>
 8001838:	68fb      	ldr	r3, [r7, #12]
 800183a:	2220      	movs	r2, #32
 800183c:	f883 2041 	strb.w	r2, [r3, #65]	; 0x41
 8001840:	2303      	movs	r3, #3
 8001842:	e03a      	b.n	80018ba <HAL_UART_Transmit+0x10e>
 8001844:	69fb      	ldr	r3, [r7, #28]
 8001846:	2b00      	cmp	r3, #0
 8001848:	d10b      	bne.n	8001862 <HAL_UART_Transmit+0xb6>
 800184a:	69bb      	ldr	r3, [r7, #24]
 800184c:	881b      	ldrh	r3, [r3, #0]
 800184e:	461a      	mov	r2, r3
 8001850:	68fb      	ldr	r3, [r7, #12]
 8001852:	681b      	ldr	r3, [r3, #0]
 8001854:	f3c2 0208 	ubfx	r2, r2, #0, #9
 8001858:	605a      	str	r2, [r3, #4]
 800185a:	69bb      	ldr	r3, [r7, #24]
 800185c:	3302      	adds	r3, #2
 800185e:	61bb      	str	r3, [r7, #24]
 8001860:	e007      	b.n	8001872 <HAL_UART_Transmit+0xc6>
 8001862:	69fb      	ldr	r3, [r7, #28]
 8001864:	781a      	ldrb	r2, [r3, #0]
 8001866:	68fb      	ldr	r3, [r7, #12]
 8001868:	681b      	ldr	r3, [r3, #0]
 800186a:	605a      	str	r2, [r3, #4]
 800186c:	69fb      	ldr	r3, [r7, #28]
 800186e:	3301      	adds	r3, #1
 8001870:	61fb      	str	r3, [r7, #28]
 8001872:	68fb      	ldr	r3, [r7, #12]
 8001874:	8cdb      	ldrh	r3, [r3, #38]	; 0x26
 8001876:	b29b      	uxth	r3, r3
 8001878:	3b01      	subs	r3, #1
 800187a:	b29a      	uxth	r2, r3
 800187c:	68fb      	ldr	r3, [r7, #12]
 800187e:	84da      	strh	r2, [r3, #38]	; 0x26
 8001880:	68fb      	ldr	r3, [r7, #12]
 8001882:	8cdb      	ldrh	r3, [r3, #38]	; 0x26
 8001884:	b29b      	uxth	r3, r3
 8001886:	2b00      	cmp	r3, #0
 8001888:	d1cb      	bne.n	8001822 <HAL_UART_Transmit+0x76>
 800188a:	683b      	ldr	r3, [r7, #0]
 800188c:	9300      	str	r3, [sp, #0]
 800188e:	697b      	ldr	r3, [r7, #20]
 8001890:	2200      	movs	r2, #0
 8001892:	2140      	movs	r1, #64	; 0x40
 8001894:	68f8      	ldr	r0, [r7, #12]
 8001896:	f000 f814 	bl	80018c2 <UART_WaitOnFlagUntilTimeout>
 800189a:	4603      	mov	r3, r0
 800189c:	2b00      	cmp	r3, #0
 800189e:	d005      	beq.n	80018ac <HAL_UART_Transmit+0x100>
 80018a0:	68fb      	ldr	r3, [r7, #12]
 80018a2:	2220      	movs	r2, #32
 80018a4:	f883 2041 	strb.w	r2, [r3, #65]	; 0x41
 80018a8:	2303      	movs	r3, #3
 80018aa:	e006      	b.n	80018ba <HAL_UART_Transmit+0x10e>
 80018ac:	68fb      	ldr	r3, [r7, #12]
 80018ae:	2220      	movs	r2, #32
 80018b0:	f883 2041 	strb.w	r2, [r3, #65]	; 0x41
 80018b4:	2300      	movs	r3, #0
 80018b6:	e000      	b.n	80018ba <HAL_UART_Transmit+0x10e>
 80018b8:	2302      	movs	r3, #2
 80018ba:	4618      	mov	r0, r3
 80018bc:	3720      	adds	r7, #32
 80018be:	46bd      	mov	sp, r7
 80018c0:	bd80      	pop	{r7, pc}

080018c2 <UART_WaitOnFlagUntilTimeout>:
 80018c2:	b580      	push	{r7, lr}
 80018c4:	b086      	sub	sp, #24
 80018c6:	af00      	add	r7, sp, #0
 80018c8:	60f8      	str	r0, [r7, #12]
 80018ca:	60b9      	str	r1, [r7, #8]
 80018cc:	603b      	str	r3, [r7, #0]
 80018ce:	4613      	mov	r3, r2
 80018d0:	71fb      	strb	r3, [r7, #7]
 80018d2:	e03b      	b.n	800194c <UART_WaitOnFlagUntilTimeout+0x8a>
 80018d4:	6a3b      	ldr	r3, [r7, #32]
 80018d6:	f1b3 3fff 	cmp.w	r3, #4294967295	; 0xffffffff
 80018da:	d037      	beq.n	800194c <UART_WaitOnFlagUntilTimeout+0x8a>
 80018dc:	f7ff f820 	bl	8000920 <HAL_GetTick>
 80018e0:	4602      	mov	r2, r0
 80018e2:	683b      	ldr	r3, [r7, #0]
 80018e4:	1ad3      	subs	r3, r2, r3
 80018e6:	6a3a      	ldr	r2, [r7, #32]
 80018e8:	429a      	cmp	r2, r3
 80018ea:	d302      	bcc.n	80018f2 <UART_WaitOnFlagUntilTimeout+0x30>
 80018ec:	6a3b      	ldr	r3, [r7, #32]
 80018ee:	2b00      	cmp	r3, #0
 80018f0:	d101      	bne.n	80018f6 <UART_WaitOnFlagUntilTimeout+0x34>
 80018f2:	2303      	movs	r3, #3
 80018f4:	e03a      	b.n	800196c <UART_WaitOnFlagUntilTimeout+0xaa>
 80018f6:	68fb      	ldr	r3, [r7, #12]
 80018f8:	681b      	ldr	r3, [r3, #0]
 80018fa:	68db      	ldr	r3, [r3, #12]
 80018fc:	f003 0304 	and.w	r3, r3, #4
 8001900:	2b00      	cmp	r3, #0
 8001902:	d023      	beq.n	800194c <UART_WaitOnFlagUntilTimeout+0x8a>
 8001904:	68bb      	ldr	r3, [r7, #8]
 8001906:	2b80      	cmp	r3, #128	; 0x80
 8001908:	d020      	beq.n	800194c <UART_WaitOnFlagUntilTimeout+0x8a>
 800190a:	68bb      	ldr	r3, [r7, #8]
 800190c:	2b40      	cmp	r3, #64	; 0x40
 800190e:	d01d      	beq.n	800194c <UART_WaitOnFlagUntilTimeout+0x8a>
 8001910:	68fb      	ldr	r3, [r7, #12]
 8001912:	681b      	ldr	r3, [r3, #0]
 8001914:	681b      	ldr	r3, [r3, #0]
 8001916:	f003 0308 	and.w	r3, r3, #8
 800191a:	2b08      	cmp	r3, #8
 800191c:	d116      	bne.n	800194c <UART_WaitOnFlagUntilTimeout+0x8a>
 800191e:	2300      	movs	r3, #0
 8001920:	617b      	str	r3, [r7, #20]
 8001922:	68fb      	ldr	r3, [r7, #12]
 8001924:	681b      	ldr	r3, [r3, #0]
 8001926:	681b      	ldr	r3, [r3, #0]
 8001928:	617b      	str	r3, [r7, #20]
 800192a:	68fb      	ldr	r3, [r7, #12]
 800192c:	681b      	ldr	r3, [r3, #0]
 800192e:	685b      	ldr	r3, [r3, #4]
 8001930:	617b      	str	r3, [r7, #20]
 8001932:	697b      	ldr	r3, [r7, #20]
 8001934:	68f8      	ldr	r0, [r7, #12]
 8001936:	f000 f81d 	bl	8001974 <UART_EndRxTransfer>
 800193a:	68fb      	ldr	r3, [r7, #12]
 800193c:	2208      	movs	r2, #8
 800193e:	645a      	str	r2, [r3, #68]	; 0x44
 8001940:	68fb      	ldr	r3, [r7, #12]
 8001942:	2200      	movs	r2, #0
 8001944:	f883 2040 	strb.w	r2, [r3, #64]	; 0x40
 8001948:	2301      	movs	r3, #1
 800194a:	e00f      	b.n	800196c <UART_WaitOnFlagUntilTimeout+0xaa>
 800194c:	68fb      	ldr	r3, [r7, #12]
 800194e:	681b      	ldr	r3, [r3, #0]
 8001950:	681a      	ldr	r2, [r3, #0]
 8001952:	68bb      	ldr	r3, [r7, #8]
 8001954:	4013      	ands	r3, r2
 8001956:	68ba      	ldr	r2, [r7, #8]
 8001958:	429a      	cmp	r2, r3
 800195a:	bf0c      	ite	eq
 800195c:	2301      	moveq	r3, #1
 800195e:	2300      	movne	r3, #0
 8001960:	b2db      	uxtb	r3, r3
 8001962:	461a      	mov	r2, r3
 8001964:	79fb      	ldrb	r3, [r7, #7]
 8001966:	429a      	cmp	r2, r3
 8001968:	d0b4      	beq.n	80018d4 <UART_WaitOnFlagUntilTimeout+0x12>
 800196a:	2300      	movs	r3, #0
 800196c:	4618      	mov	r0, r3
 800196e:	3718      	adds	r7, #24
 8001970:	46bd      	mov	sp, r7
 8001972:	bd80      	pop	{r7, pc}

08001974 <UART_EndRxTransfer>:
 8001974:	b480      	push	{r7}
 8001976:	b095      	sub	sp, #84	; 0x54
 8001978:	af00      	add	r7, sp, #0
 800197a:	6078      	str	r0, [r7, #4]
 800197c:	687b      	ldr	r3, [r7, #4]
 800197e:	681b      	ldr	r3, [r3, #0]
 8001980:	330c      	adds	r3, #12
 8001982:	637b      	str	r3, [r7, #52]	; 0x34
 8001984:	6b7b      	ldr	r3, [r7, #52]	; 0x34
 8001986:	e853 3f00 	ldrex	r3, [r3]
 800198a:	633b      	str	r3, [r7, #48]	; 0x30
 800198c:	6b3b      	ldr	r3, [r7, #48]	; 0x30
 800198e:	f423 7390 	bic.w	r3, r3, #288	; 0x120
 8001992:	64fb      	str	r3, [r7, #76]	; 0x4c
 8001994:	687b      	ldr	r3, [r7, #4]
 8001996:	681b      	ldr	r3, [r3, #0]
 8001998:	330c      	adds	r3, #12
 800199a:	6cfa      	ldr	r2, [r7, #76]	; 0x4c
 800199c:	643a      	str	r2, [r7, #64]	; 0x40
 800199e:	63fb      	str	r3, [r7, #60]	; 0x3c
 80019a0:	6bf9      	ldr	r1, [r7, #60]	; 0x3c
 80019a2:	6c3a      	ldr	r2, [r7, #64]	; 0x40
 80019a4:	e841 2300 	strex	r3, r2, [r1]
 80019a8:	63bb      	str	r3, [r7, #56]	; 0x38
 80019aa:	6bbb      	ldr	r3, [r7, #56]	; 0x38
 80019ac:	2b00      	cmp	r3, #0
 80019ae:	d1e5      	bne.n	800197c <UART_EndRxTransfer+0x8>
 80019b0:	687b      	ldr	r3, [r7, #4]
 80019b2:	681b      	ldr	r3, [r3, #0]
 80019b4:	3314      	adds	r3, #20
 80019b6:	623b      	str	r3, [r7, #32]
 80019b8:	6a3b      	ldr	r3, [r7, #32]
 80019ba:	e853 3f00 	ldrex	r3, [r3]
 80019be:	61fb      	str	r3, [r7, #28]
 80019c0:	69fb      	ldr	r3, [r7, #28]
 80019c2:	f023 0301 	bic.w	r3, r3, #1
 80019c6:	64bb      	str	r3, [r7, #72]	; 0x48
 80019c8:	687b      	ldr	r3, [r7, #4]
 80019ca:	681b      	ldr	r3, [r3, #0]
 80019cc:	3314      	adds	r3, #20
 80019ce:	6cba      	ldr	r2, [r7, #72]	; 0x48
 80019d0:	62fa      	str	r2, [r7, #44]	; 0x2c
 80019d2:	62bb      	str	r3, [r7, #40]	; 0x28
 80019d4:	6ab9      	ldr	r1, [r7, #40]	; 0x28
 80019d6:	6afa      	ldr	r2, [r7, #44]	; 0x2c
 80019d8:	e841 2300 	strex	r3, r2, [r1]
 80019dc:	627b      	str	r3, [r7, #36]	; 0x24
 80019de:	6a7b      	ldr	r3, [r7, #36]	; 0x24
 80019e0:	2b00      	cmp	r3, #0
 80019e2:	d1e5      	bne.n	80019b0 <UART_EndRxTransfer+0x3c>
 80019e4:	687b      	ldr	r3, [r7, #4]
 80019e6:	6b1b      	ldr	r3, [r3, #48]	; 0x30
 80019e8:	2b01      	cmp	r3, #1
 80019ea:	d119      	bne.n	8001a20 <UART_EndRxTransfer+0xac>
 80019ec:	687b      	ldr	r3, [r7, #4]
 80019ee:	681b      	ldr	r3, [r3, #0]
 80019f0:	330c      	adds	r3, #12
 80019f2:	60fb      	str	r3, [r7, #12]
 80019f4:	68fb      	ldr	r3, [r7, #12]
 80019f6:	e853 3f00 	ldrex	r3, [r3]
 80019fa:	60bb      	str	r3, [r7, #8]
 80019fc:	68bb      	ldr	r3, [r7, #8]
 80019fe:	f023 0310 	bic.w	r3, r3, #16
 8001a02:	647b      	str	r3, [r7, #68]	; 0x44
 8001a04:	687b      	ldr	r3, [r7, #4]
 8001a06:	681b      	ldr	r3, [r3, #0]
 8001a08:	330c      	adds	r3, #12
 8001a0a:	6c7a      	ldr	r2, [r7, #68]	; 0x44
 8001a0c:	61ba      	str	r2, [r7, #24]
 8001a0e:	617b      	str	r3, [r7, #20]
 8001a10:	6979      	ldr	r1, [r7, #20]
 8001a12:	69ba      	ldr	r2, [r7, #24]
 8001a14:	e841 2300 	strex	r3, r2, [r1]
 8001a18:	613b      	str	r3, [r7, #16]
 8001a1a:	693b      	ldr	r3, [r7, #16]
 8001a1c:	2b00      	cmp	r3, #0
 8001a1e:	d1e5      	bne.n	80019ec <UART_EndRxTransfer+0x78>
 8001a20:	687b      	ldr	r3, [r7, #4]
 8001a22:	2220      	movs	r2, #32
 8001a24:	f883 2042 	strb.w	r2, [r3, #66]	; 0x42
 8001a28:	687b      	ldr	r3, [r7, #4]
 8001a2a:	2200      	movs	r2, #0
 8001a2c:	631a      	str	r2, [r3, #48]	; 0x30
 8001a2e:	bf00      	nop
 8001a30:	3754      	adds	r7, #84	; 0x54
 8001a32:	46bd      	mov	sp, r7
 8001a34:	f85d 7b04 	ldr.w	r7, [sp], #4
 8001a38:	4770      	bx	lr
	...

08001a3c <UART_SetConfig>:
 8001a3c:	e92d 4fb0 	stmdb	sp!, {r4, r5, r7, r8, r9, sl, fp, lr}
 8001a40:	b0c0      	sub	sp, #256	; 0x100
 8001a42:	af00      	add	r7, sp, #0
 8001a44:	f8c7 00f4 	str.w	r0, [r7, #244]	; 0xf4
 8001a48:	f8d7 30f4 	ldr.w	r3, [r7, #244]	; 0xf4
 8001a4c:	681b      	ldr	r3, [r3, #0]
 8001a4e:	691b      	ldr	r3, [r3, #16]
 8001a50:	f423 5040 	bic.w	r0, r3, #12288	; 0x3000
 8001a54:	f8d7 30f4 	ldr.w	r3, [r7, #244]	; 0xf4
 8001a58:	68d9      	ldr	r1, [r3, #12]
 8001a5a:	f8d7 30f4 	ldr.w	r3, [r7, #244]	; 0xf4
 8001a5e:	681a      	ldr	r2, [r3, #0]
 8001a60:	ea40 0301 	orr.w	r3, r0, r1
 8001a64:	6113      	str	r3, [r2, #16]
 8001a66:	f8d7 30f4 	ldr.w	r3, [r7, #244]	; 0xf4
 8001a6a:	689a      	ldr	r2, [r3, #8]
 8001a6c:	f8d7 30f4 	ldr.w	r3, [r7, #244]	; 0xf4
 8001a70:	691b      	ldr	r3, [r3, #16]
 8001a72:	431a      	orrs	r2, r3
 8001a74:	f8d7 30f4 	ldr.w	r3, [r7, #244]	; 0xf4
 8001a78:	695b      	ldr	r3, [r3, #20]
 8001a7a:	431a      	orrs	r2, r3
 8001a7c:	f8d7 30f4 	ldr.w	r3, [r7, #244]	; 0xf4
 8001a80:	69db      	ldr	r3, [r3, #28]
 8001a82:	4313      	orrs	r3, r2
 8001a84:	f8c7 30f8 	str.w	r3, [r7, #248]	; 0xf8
 8001a88:	f8d7 30f4 	ldr.w	r3, [r7, #244]	; 0xf4
 8001a8c:	681b      	ldr	r3, [r3, #0]
 8001a8e:	68db      	ldr	r3, [r3, #12]
 8001a90:	f423 4116 	bic.w	r1, r3, #38400	; 0x9600
 8001a94:	f021 010c 	bic.w	r1, r1, #12
 8001a98:	f8d7 30f4 	ldr.w	r3, [r7, #244]	; 0xf4
 8001a9c:	681a      	ldr	r2, [r3, #0]
 8001a9e:	f8d7 30f8 	ldr.w	r3, [r7, #248]	; 0xf8
 8001aa2:	430b      	orrs	r3, r1
 8001aa4:	60d3      	str	r3, [r2, #12]
 8001aa6:	f8d7 30f4 	ldr.w	r3, [r7, #244]	; 0xf4
 8001aaa:	681b      	ldr	r3, [r3, #0]
 8001aac:	695b      	ldr	r3, [r3, #20]
 8001aae:	f423 7040 	bic.w	r0, r3, #768	; 0x300
 8001ab2:	f8d7 30f4 	ldr.w	r3, [r7, #244]	; 0xf4
 8001ab6:	6999      	ldr	r1, [r3, #24]
 8001ab8:	f8d7 30f4 	ldr.w	r3, [r7, #244]	; 0xf4
 8001abc:	681a      	ldr	r2, [r3, #0]
 8001abe:	ea40 0301 	orr.w	r3, r0, r1
 8001ac2:	6153      	str	r3, [r2, #20]
 8001ac4:	f8d7 30f4 	ldr.w	r3, [r7, #244]	; 0xf4
 8001ac8:	681a      	ldr	r2, [r3, #0]
 8001aca:	4b8f      	ldr	r3, [pc, #572]	; (8001d08 <UART_SetConfig+0x2cc>)
 8001acc:	429a      	cmp	r2, r3
 8001ace:	d005      	beq.n	8001adc <UART_SetConfig+0xa0>
 8001ad0:	f8d7 30f4 	ldr.w	r3, [r7, #244]	; 0xf4
 8001ad4:	681a      	ldr	r2, [r3, #0]
 8001ad6:	4b8d      	ldr	r3, [pc, #564]	; (8001d0c <UART_SetConfig+0x2d0>)
 8001ad8:	429a      	cmp	r2, r3
 8001ada:	d104      	bne.n	8001ae6 <UART_SetConfig+0xaa>
 8001adc:	f7ff fe02 	bl	80016e4 <HAL_RCC_GetPCLK2Freq>
 8001ae0:	f8c7 00fc 	str.w	r0, [r7, #252]	; 0xfc
 8001ae4:	e003      	b.n	8001aee <UART_SetConfig+0xb2>
 8001ae6:	f7ff fde9 	bl	80016bc <HAL_RCC_GetPCLK1Freq>
 8001aea:	f8c7 00fc 	str.w	r0, [r7, #252]	; 0xfc
 8001aee:	f8d7 30f4 	ldr.w	r3, [r7, #244]	; 0xf4
 8001af2:	69db      	ldr	r3, [r3, #28]
 8001af4:	f5b3 4f00 	cmp.w	r3, #32768	; 0x8000
 8001af8:	f040 810c 	bne.w	8001d14 <UART_SetConfig+0x2d8>
 8001afc:	f8d7 30fc 	ldr.w	r3, [r7, #252]	; 0xfc
 8001b00:	2200      	movs	r2, #0
 8001b02:	f8c7 30e8 	str.w	r3, [r7, #232]	; 0xe8
 8001b06:	f8c7 20ec 	str.w	r2, [r7, #236]	; 0xec
 8001b0a:	e9d7 453a 	ldrd	r4, r5, [r7, #232]	; 0xe8
 8001b0e:	4622      	mov	r2, r4
 8001b10:	462b      	mov	r3, r5
 8001b12:	1891      	adds	r1, r2, r2
 8001b14:	65b9      	str	r1, [r7, #88]	; 0x58
 8001b16:	415b      	adcs	r3, r3
 8001b18:	65fb      	str	r3, [r7, #92]	; 0x5c
 8001b1a:	e9d7 2316 	ldrd	r2, r3, [r7, #88]	; 0x58
 8001b1e:	4621      	mov	r1, r4
 8001b20:	eb12 0801 	adds.w	r8, r2, r1
 8001b24:	4629      	mov	r1, r5
 8001b26:	eb43 0901 	adc.w	r9, r3, r1
 8001b2a:	f04f 0200 	mov.w	r2, #0
 8001b2e:	f04f 0300 	mov.w	r3, #0
 8001b32:	ea4f 03c9 	mov.w	r3, r9, lsl #3
 8001b36:	ea43 7358 	orr.w	r3, r3, r8, lsr #29
 8001b3a:	ea4f 02c8 	mov.w	r2, r8, lsl #3
 8001b3e:	4690      	mov	r8, r2
 8001b40:	4699      	mov	r9, r3
 8001b42:	4623      	mov	r3, r4
 8001b44:	eb18 0303 	adds.w	r3, r8, r3
 8001b48:	f8c7 30e0 	str.w	r3, [r7, #224]	; 0xe0
 8001b4c:	462b      	mov	r3, r5
 8001b4e:	eb49 0303 	adc.w	r3, r9, r3
 8001b52:	f8c7 30e4 	str.w	r3, [r7, #228]	; 0xe4
 8001b56:	f8d7 30f4 	ldr.w	r3, [r7, #244]	; 0xf4
 8001b5a:	685b      	ldr	r3, [r3, #4]
 8001b5c:	2200      	movs	r2, #0
 8001b5e:	f8c7 30d8 	str.w	r3, [r7, #216]	; 0xd8
 8001b62:	f8c7 20dc 	str.w	r2, [r7, #220]	; 0xdc
 8001b66:	e9d7 1236 	ldrd	r1, r2, [r7, #216]	; 0xd8
 8001b6a:	460b      	mov	r3, r1
 8001b6c:	18db      	adds	r3, r3, r3
 8001b6e:	653b      	str	r3, [r7, #80]	; 0x50
 8001b70:	4613      	mov	r3, r2
 8001b72:	eb42 0303 	adc.w	r3, r2, r3
 8001b76:	657b      	str	r3, [r7, #84]	; 0x54
 8001b78:	e9d7 2314 	ldrd	r2, r3, [r7, #80]	; 0x50
 8001b7c:	e9d7 0138 	ldrd	r0, r1, [r7, #224]	; 0xe0
 8001b80:	f7fe fb34 	bl	80001ec <__aeabi_uldivmod>
 8001b84:	4602      	mov	r2, r0
 8001b86:	460b      	mov	r3, r1
 8001b88:	4b61      	ldr	r3, [pc, #388]	; (8001d10 <UART_SetConfig+0x2d4>)
 8001b8a:	fba3 2302 	umull	r2, r3, r3, r2
 8001b8e:	095b      	lsrs	r3, r3, #5
 8001b90:	011c      	lsls	r4, r3, #4
 8001b92:	f8d7 30fc 	ldr.w	r3, [r7, #252]	; 0xfc
 8001b96:	2200      	movs	r2, #0
 8001b98:	f8c7 30d0 	str.w	r3, [r7, #208]	; 0xd0
 8001b9c:	f8c7 20d4 	str.w	r2, [r7, #212]	; 0xd4
 8001ba0:	e9d7 8934 	ldrd	r8, r9, [r7, #208]	; 0xd0
 8001ba4:	4642      	mov	r2, r8
 8001ba6:	464b      	mov	r3, r9
 8001ba8:	1891      	adds	r1, r2, r2
 8001baa:	64b9      	str	r1, [r7, #72]	; 0x48
 8001bac:	415b      	adcs	r3, r3
 8001bae:	64fb      	str	r3, [r7, #76]	; 0x4c
 8001bb0:	e9d7 2312 	ldrd	r2, r3, [r7, #72]	; 0x48
 8001bb4:	4641      	mov	r1, r8
 8001bb6:	eb12 0a01 	adds.w	sl, r2, r1
 8001bba:	4649      	mov	r1, r9
 8001bbc:	eb43 0b01 	adc.w	fp, r3, r1
 8001bc0:	f04f 0200 	mov.w	r2, #0
 8001bc4:	f04f 0300 	mov.w	r3, #0
 8001bc8:	ea4f 03cb 	mov.w	r3, fp, lsl #3
 8001bcc:	ea43 735a 	orr.w	r3, r3, sl, lsr #29
 8001bd0:	ea4f 02ca 	mov.w	r2, sl, lsl #3
 8001bd4:	4692      	mov	sl, r2
 8001bd6:	469b      	mov	fp, r3
 8001bd8:	4643      	mov	r3, r8
 8001bda:	eb1a 0303 	adds.w	r3, sl, r3
 8001bde:	f8c7 30c8 	str.w	r3, [r7, #200]	; 0xc8
 8001be2:	464b      	mov	r3, r9
 8001be4:	eb4b 0303 	adc.w	r3, fp, r3
 8001be8:	f8c7 30cc 	str.w	r3, [r7, #204]	; 0xcc
 8001bec:	f8d7 30f4 	ldr.w	r3, [r7, #244]	; 0xf4
 8001bf0:	685b      	ldr	r3, [r3, #4]
 8001bf2:	2200      	movs	r2, #0
 8001bf4:	f8c7 30c0 	str.w	r3, [r7, #192]	; 0xc0
 8001bf8:	f8c7 20c4 	str.w	r2, [r7, #196]	; 0xc4
 8001bfc:	e9d7 1230 	ldrd	r1, r2, [r7, #192]	; 0xc0
 8001c00:	460b      	mov	r3, r1
 8001c02:	18db      	adds	r3, r3, r3
 8001c04:	643b      	str	r3, [r7, #64]	; 0x40
 8001c06:	4613      	mov	r3, r2
 8001c08:	eb42 0303 	adc.w	r3, r2, r3
 8001c0c:	647b      	str	r3, [r7, #68]	; 0x44
 8001c0e:	e9d7 2310 	ldrd	r2, r3, [r7, #64]	; 0x40
 8001c12:	e9d7 0132 	ldrd	r0, r1, [r7, #200]	; 0xc8
 8001c16:	f7fe fae9 	bl	80001ec <__aeabi_uldivmod>
 8001c1a:	4602      	mov	r2, r0
 8001c1c:	460b      	mov	r3, r1
 8001c1e:	4611      	mov	r1, r2
 8001c20:	4b3b      	ldr	r3, [pc, #236]	; (8001d10 <UART_SetConfig+0x2d4>)
 8001c22:	fba3 2301 	umull	r2, r3, r3, r1
 8001c26:	095b      	lsrs	r3, r3, #5
 8001c28:	2264      	movs	r2, #100	; 0x64
 8001c2a:	fb02 f303 	mul.w	r3, r2, r3
 8001c2e:	1acb      	subs	r3, r1, r3
 8001c30:	00db      	lsls	r3, r3, #3
 8001c32:	f103 0232 	add.w	r2, r3, #50	; 0x32
 8001c36:	4b36      	ldr	r3, [pc, #216]	; (8001d10 <UART_SetConfig+0x2d4>)
 8001c38:	fba3 2302 	umull	r2, r3, r3, r2
 8001c3c:	095b      	lsrs	r3, r3, #5
 8001c3e:	005b      	lsls	r3, r3, #1
 8001c40:	f403 73f8 	and.w	r3, r3, #496	; 0x1f0
 8001c44:	441c      	add	r4, r3
 8001c46:	f8d7 30fc 	ldr.w	r3, [r7, #252]	; 0xfc
 8001c4a:	2200      	movs	r2, #0
 8001c4c:	f8c7 30b8 	str.w	r3, [r7, #184]	; 0xb8
 8001c50:	f8c7 20bc 	str.w	r2, [r7, #188]	; 0xbc
 8001c54:	e9d7 892e 	ldrd	r8, r9, [r7, #184]	; 0xb8
 8001c58:	4642      	mov	r2, r8
 8001c5a:	464b      	mov	r3, r9
 8001c5c:	1891      	adds	r1, r2, r2
 8001c5e:	63b9      	str	r1, [r7, #56]	; 0x38
 8001c60:	415b      	adcs	r3, r3
 8001c62:	63fb      	str	r3, [r7, #60]	; 0x3c
 8001c64:	e9d7 230e 	ldrd	r2, r3, [r7, #56]	; 0x38
 8001c68:	4641      	mov	r1, r8
 8001c6a:	1851      	adds	r1, r2, r1
 8001c6c:	6339      	str	r1, [r7, #48]	; 0x30
 8001c6e:	4649      	mov	r1, r9
 8001c70:	414b      	adcs	r3, r1
 8001c72:	637b      	str	r3, [r7, #52]	; 0x34
 8001c74:	f04f 0200 	mov.w	r2, #0
 8001c78:	f04f 0300 	mov.w	r3, #0
 8001c7c:	e9d7 ab0c 	ldrd	sl, fp, [r7, #48]	; 0x30
 8001c80:	4659      	mov	r1, fp
 8001c82:	00cb      	lsls	r3, r1, #3
 8001c84:	4651      	mov	r1, sl
 8001c86:	ea43 7351 	orr.w	r3, r3, r1, lsr #29
 8001c8a:	4651      	mov	r1, sl
 8001c8c:	00ca      	lsls	r2, r1, #3
 8001c8e:	4610      	mov	r0, r2
 8001c90:	4619      	mov	r1, r3
 8001c92:	4603      	mov	r3, r0
 8001c94:	4642      	mov	r2, r8
 8001c96:	189b      	adds	r3, r3, r2
 8001c98:	f8c7 30b0 	str.w	r3, [r7, #176]	; 0xb0
 8001c9c:	464b      	mov	r3, r9
 8001c9e:	460a      	mov	r2, r1
 8001ca0:	eb42 0303 	adc.w	r3, r2, r3
 8001ca4:	f8c7 30b4 	str.w	r3, [r7, #180]	; 0xb4
 8001ca8:	f8d7 30f4 	ldr.w	r3, [r7, #244]	; 0xf4
 8001cac:	685b      	ldr	r3, [r3, #4]
 8001cae:	2200      	movs	r2, #0
 8001cb0:	f8c7 30a8 	str.w	r3, [r7, #168]	; 0xa8
 8001cb4:	f8c7 20ac 	str.w	r2, [r7, #172]	; 0xac
 8001cb8:	e9d7 122a 	ldrd	r1, r2, [r7, #168]	; 0xa8
 8001cbc:	460b      	mov	r3, r1
 8001cbe:	18db      	adds	r3, r3, r3
 8001cc0:	62bb      	str	r3, [r7, #40]	; 0x28
 8001cc2:	4613      	mov	r3, r2
 8001cc4:	eb42 0303 	adc.w	r3, r2, r3
 8001cc8:	62fb      	str	r3, [r7, #44]	; 0x2c
 8001cca:	e9d7 230a 	ldrd	r2, r3, [r7, #40]	; 0x28
 8001cce:	e9d7 012c 	ldrd	r0, r1, [r7, #176]	; 0xb0
 8001cd2:	f7fe fa8b 	bl	80001ec <__aeabi_uldivmod>
 8001cd6:	4602      	mov	r2, r0
 8001cd8:	460b      	mov	r3, r1
 8001cda:	4b0d      	ldr	r3, [pc, #52]	; (8001d10 <UART_SetConfig+0x2d4>)
 8001cdc:	fba3 1302 	umull	r1, r3, r3, r2
 8001ce0:	095b      	lsrs	r3, r3, #5
 8001ce2:	2164      	movs	r1, #100	; 0x64
 8001ce4:	fb01 f303 	mul.w	r3, r1, r3
 8001ce8:	1ad3      	subs	r3, r2, r3
 8001cea:	00db      	lsls	r3, r3, #3
 8001cec:	3332      	adds	r3, #50	; 0x32
 8001cee:	4a08      	ldr	r2, [pc, #32]	; (8001d10 <UART_SetConfig+0x2d4>)
 8001cf0:	fba2 2303 	umull	r2, r3, r2, r3
 8001cf4:	095b      	lsrs	r3, r3, #5
 8001cf6:	f003 0207 	and.w	r2, r3, #7
 8001cfa:	f8d7 30f4 	ldr.w	r3, [r7, #244]	; 0xf4
 8001cfe:	681b      	ldr	r3, [r3, #0]
 8001d00:	4422      	add	r2, r4
 8001d02:	609a      	str	r2, [r3, #8]
 8001d04:	e106      	b.n	8001f14 <UART_SetConfig+0x4d8>
 8001d06:	bf00      	nop
 8001d08:	40011000 	.word	0x40011000
 8001d0c:	40011400 	.word	0x40011400
 8001d10:	51eb851f 	.word	0x51eb851f
 8001d14:	f8d7 30fc 	ldr.w	r3, [r7, #252]	; 0xfc
 8001d18:	2200      	movs	r2, #0
 8001d1a:	f8c7 30a0 	str.w	r3, [r7, #160]	; 0xa0
 8001d1e:	f8c7 20a4 	str.w	r2, [r7, #164]	; 0xa4
 8001d22:	e9d7 8928 	ldrd	r8, r9, [r7, #160]	; 0xa0
 8001d26:	4642      	mov	r2, r8
 8001d28:	464b      	mov	r3, r9
 8001d2a:	1891      	adds	r1, r2, r2
 8001d2c:	6239      	str	r1, [r7, #32]
 8001d2e:	415b      	adcs	r3, r3
 8001d30:	627b      	str	r3, [r7, #36]	; 0x24
 8001d32:	e9d7 2308 	ldrd	r2, r3, [r7, #32]
 8001d36:	4641      	mov	r1, r8
 8001d38:	1854      	adds	r4, r2, r1
 8001d3a:	4649      	mov	r1, r9
 8001d3c:	eb43 0501 	adc.w	r5, r3, r1
 8001d40:	f04f 0200 	mov.w	r2, #0
 8001d44:	f04f 0300 	mov.w	r3, #0
 8001d48:	00eb      	lsls	r3, r5, #3
 8001d4a:	ea43 7354 	orr.w	r3, r3, r4, lsr #29
 8001d4e:	00e2      	lsls	r2, r4, #3
 8001d50:	4614      	mov	r4, r2
 8001d52:	461d      	mov	r5, r3
 8001d54:	4643      	mov	r3, r8
 8001d56:	18e3      	adds	r3, r4, r3
 8001d58:	f8c7 3098 	str.w	r3, [r7, #152]	; 0x98
 8001d5c:	464b      	mov	r3, r9
 8001d5e:	eb45 0303 	adc.w	r3, r5, r3
 8001d62:	f8c7 309c 	str.w	r3, [r7, #156]	; 0x9c
 8001d66:	f8d7 30f4 	ldr.w	r3, [r7, #244]	; 0xf4
 8001d6a:	685b      	ldr	r3, [r3, #4]
 8001d6c:	2200      	movs	r2, #0
 8001d6e:	f8c7 3090 	str.w	r3, [r7, #144]	; 0x90
 8001d72:	f8c7 2094 	str.w	r2, [r7, #148]	; 0x94
 8001d76:	f04f 0200 	mov.w	r2, #0
 8001d7a:	f04f 0300 	mov.w	r3, #0
 8001d7e:	e9d7 4524 	ldrd	r4, r5, [r7, #144]	; 0x90
 8001d82:	4629      	mov	r1, r5
 8001d84:	008b      	lsls	r3, r1, #2
 8001d86:	4621      	mov	r1, r4
 8001d88:	ea43 7391 	orr.w	r3, r3, r1, lsr #30
 8001d8c:	4621      	mov	r1, r4
 8001d8e:	008a      	lsls	r2, r1, #2
 8001d90:	e9d7 0126 	ldrd	r0, r1, [r7, #152]	; 0x98
 8001d94:	f7fe fa2a 	bl	80001ec <__aeabi_uldivmod>
 8001d98:	4602      	mov	r2, r0
 8001d9a:	460b      	mov	r3, r1
 8001d9c:	4b60      	ldr	r3, [pc, #384]	; (8001f20 <UART_SetConfig+0x4e4>)
 8001d9e:	fba3 2302 	umull	r2, r3, r3, r2
 8001da2:	095b      	lsrs	r3, r3, #5
 8001da4:	011c      	lsls	r4, r3, #4
 8001da6:	f8d7 30fc 	ldr.w	r3, [r7, #252]	; 0xfc
 8001daa:	2200      	movs	r2, #0
 8001dac:	f8c7 3088 	str.w	r3, [r7, #136]	; 0x88
 8001db0:	f8c7 208c 	str.w	r2, [r7, #140]	; 0x8c
 8001db4:	e9d7 8922 	ldrd	r8, r9, [r7, #136]	; 0x88
 8001db8:	4642      	mov	r2, r8
 8001dba:	464b      	mov	r3, r9
 8001dbc:	1891      	adds	r1, r2, r2
 8001dbe:	61b9      	str	r1, [r7, #24]
 8001dc0:	415b      	adcs	r3, r3
 8001dc2:	61fb      	str	r3, [r7, #28]
 8001dc4:	e9d7 2306 	ldrd	r2, r3, [r7, #24]
 8001dc8:	4641      	mov	r1, r8
 8001dca:	1851      	adds	r1, r2, r1
 8001dcc:	6139      	str	r1, [r7, #16]
 8001dce:	4649      	mov	r1, r9
 8001dd0:	414b      	adcs	r3, r1
 8001dd2:	617b      	str	r3, [r7, #20]
 8001dd4:	f04f 0200 	mov.w	r2, #0
 8001dd8:	f04f 0300 	mov.w	r3, #0
 8001ddc:	e9d7 ab04 	ldrd	sl, fp, [r7, #16]
 8001de0:	4659      	mov	r1, fp
 8001de2:	00cb      	lsls	r3, r1, #3
 8001de4:	4651      	mov	r1, sl
 8001de6:	ea43 7351 	orr.w	r3, r3, r1, lsr #29
 8001dea:	4651      	mov	r1, sl
 8001dec:	00ca      	lsls	r2, r1, #3
 8001dee:	4610      	mov	r0, r2
 8001df0:	4619      	mov	r1, r3
 8001df2:	4603      	mov	r3, r0
 8001df4:	4642      	mov	r2, r8
 8001df6:	189b      	adds	r3, r3, r2
 8001df8:	f8c7 3080 	str.w	r3, [r7, #128]	; 0x80
 8001dfc:	464b      	mov	r3, r9
 8001dfe:	460a      	mov	r2, r1
 8001e00:	eb42 0303 	adc.w	r3, r2, r3
 8001e04:	f8c7 3084 	str.w	r3, [r7, #132]	; 0x84
 8001e08:	f8d7 30f4 	ldr.w	r3, [r7, #244]	; 0xf4
 8001e0c:	685b      	ldr	r3, [r3, #4]
 8001e0e:	2200      	movs	r2, #0
 8001e10:	67bb      	str	r3, [r7, #120]	; 0x78
 8001e12:	67fa      	str	r2, [r7, #124]	; 0x7c
 8001e14:	f04f 0200 	mov.w	r2, #0
 8001e18:	f04f 0300 	mov.w	r3, #0
 8001e1c:	e9d7 891e 	ldrd	r8, r9, [r7, #120]	; 0x78
 8001e20:	4649      	mov	r1, r9
 8001e22:	008b      	lsls	r3, r1, #2
 8001e24:	4641      	mov	r1, r8
 8001e26:	ea43 7391 	orr.w	r3, r3, r1, lsr #30
 8001e2a:	4641      	mov	r1, r8
 8001e2c:	008a      	lsls	r2, r1, #2
 8001e2e:	e9d7 0120 	ldrd	r0, r1, [r7, #128]	; 0x80
 8001e32:	f7fe f9db 	bl	80001ec <__aeabi_uldivmod>
 8001e36:	4602      	mov	r2, r0
 8001e38:	460b      	mov	r3, r1
 8001e3a:	4611      	mov	r1, r2
 8001e3c:	4b38      	ldr	r3, [pc, #224]	; (8001f20 <UART_SetConfig+0x4e4>)
 8001e3e:	fba3 2301 	umull	r2, r3, r3, r1
 8001e42:	095b      	lsrs	r3, r3, #5
 8001e44:	2264      	movs	r2, #100	; 0x64
 8001e46:	fb02 f303 	mul.w	r3, r2, r3
 8001e4a:	1acb      	subs	r3, r1, r3
 8001e4c:	011b      	lsls	r3, r3, #4
 8001e4e:	3332      	adds	r3, #50	; 0x32
 8001e50:	4a33      	ldr	r2, [pc, #204]	; (8001f20 <UART_SetConfig+0x4e4>)
 8001e52:	fba2 2303 	umull	r2, r3, r2, r3
 8001e56:	095b      	lsrs	r3, r3, #5
 8001e58:	f003 03f0 	and.w	r3, r3, #240	; 0xf0
 8001e5c:	441c      	add	r4, r3
 8001e5e:	f8d7 30fc 	ldr.w	r3, [r7, #252]	; 0xfc
 8001e62:	2200      	movs	r2, #0
 8001e64:	673b      	str	r3, [r7, #112]	; 0x70
 8001e66:	677a      	str	r2, [r7, #116]	; 0x74
 8001e68:	e9d7 891c 	ldrd	r8, r9, [r7, #112]	; 0x70
 8001e6c:	4642      	mov	r2, r8
 8001e6e:	464b      	mov	r3, r9
 8001e70:	1891      	adds	r1, r2, r2
 8001e72:	60b9      	str	r1, [r7, #8]
 8001e74:	415b      	adcs	r3, r3
 8001e76:	60fb      	str	r3, [r7, #12]
 8001e78:	e9d7 2302 	ldrd	r2, r3, [r7, #8]
 8001e7c:	4641      	mov	r1, r8
 8001e7e:	1851      	adds	r1, r2, r1
 8001e80:	6039      	str	r1, [r7, #0]
 8001e82:	4649      	mov	r1, r9
 8001e84:	414b      	adcs	r3, r1
 8001e86:	607b      	str	r3, [r7, #4]
 8001e88:	f04f 0200 	mov.w	r2, #0
 8001e8c:	f04f 0300 	mov.w	r3, #0
 8001e90:	e9d7 ab00 	ldrd	sl, fp, [r7]
 8001e94:	4659      	mov	r1, fp
 8001e96:	00cb      	lsls	r3, r1, #3
 8001e98:	4651      	mov	r1, sl
 8001e9a:	ea43 7351 	orr.w	r3, r3, r1, lsr #29
 8001e9e:	4651      	mov	r1, sl
 8001ea0:	00ca      	lsls	r2, r1, #3
 8001ea2:	4610      	mov	r0, r2
 8001ea4:	4619      	mov	r1, r3
 8001ea6:	4603      	mov	r3, r0
 8001ea8:	4642      	mov	r2, r8
 8001eaa:	189b      	adds	r3, r3, r2
 8001eac:	66bb      	str	r3, [r7, #104]	; 0x68
 8001eae:	464b      	mov	r3, r9
 8001eb0:	460a      	mov	r2, r1
 8001eb2:	eb42 0303 	adc.w	r3, r2, r3
 8001eb6:	66fb      	str	r3, [r7, #108]	; 0x6c
 8001eb8:	f8d7 30f4 	ldr.w	r3, [r7, #244]	; 0xf4
 8001ebc:	685b      	ldr	r3, [r3, #4]
 8001ebe:	2200      	movs	r2, #0
 8001ec0:	663b      	str	r3, [r7, #96]	; 0x60
 8001ec2:	667a      	str	r2, [r7, #100]	; 0x64
 8001ec4:	f04f 0200 	mov.w	r2, #0
 8001ec8:	f04f 0300 	mov.w	r3, #0
 8001ecc:	e9d7 8918 	ldrd	r8, r9, [r7, #96]	; 0x60
 8001ed0:	4649      	mov	r1, r9
 8001ed2:	008b      	lsls	r3, r1, #2
 8001ed4:	4641      	mov	r1, r8
 8001ed6:	ea43 7391 	orr.w	r3, r3, r1, lsr #30
 8001eda:	4641      	mov	r1, r8
 8001edc:	008a      	lsls	r2, r1, #2
 8001ede:	e9d7 011a 	ldrd	r0, r1, [r7, #104]	; 0x68
 8001ee2:	f7fe f983 	bl	80001ec <__aeabi_uldivmod>
 8001ee6:	4602      	mov	r2, r0
 8001ee8:	460b      	mov	r3, r1
 8001eea:	4b0d      	ldr	r3, [pc, #52]	; (8001f20 <UART_SetConfig+0x4e4>)
 8001eec:	fba3 1302 	umull	r1, r3, r3, r2
 8001ef0:	095b      	lsrs	r3, r3, #5
 8001ef2:	2164      	movs	r1, #100	; 0x64
 8001ef4:	fb01 f303 	mul.w	r3, r1, r3
 8001ef8:	1ad3      	subs	r3, r2, r3
 8001efa:	011b      	lsls	r3, r3, #4
 8001efc:	3332      	adds	r3, #50	; 0x32
 8001efe:	4a08      	ldr	r2, [pc, #32]	; (8001f20 <UART_SetConfig+0x4e4>)
 8001f00:	fba2 2303 	umull	r2, r3, r2, r3
 8001f04:	095b      	lsrs	r3, r3, #5
 8001f06:	f003 020f 	and.w	r2, r3, #15
 8001f0a:	f8d7 30f4 	ldr.w	r3, [r7, #244]	; 0xf4
 8001f0e:	681b      	ldr	r3, [r3, #0]
 8001f10:	4422      	add	r2, r4
 8001f12:	609a      	str	r2, [r3, #8]
 8001f14:	bf00      	nop
 8001f16:	f507 7780 	add.w	r7, r7, #256	; 0x100
 8001f1a:	46bd      	mov	sp, r7
 8001f1c:	e8bd 8fb0 	ldmia.w	sp!, {r4, r5, r7, r8, r9, sl, fp, pc}
 8001f20:	51eb851f 	.word	0x51eb851f

08001f24 <memset>:
 8001f24:	4402      	add	r2, r0
 8001f26:	4603      	mov	r3, r0
 8001f28:	4293      	cmp	r3, r2
 8001f2a:	d100      	bne.n	8001f2e <memset+0xa>
 8001f2c:	4770      	bx	lr
 8001f2e:	f803 1b01 	strb.w	r1, [r3], #1
 8001f32:	e7f9      	b.n	8001f28 <memset+0x4>

08001f34 <__libc_init_array>:
 8001f34:	b570      	push	{r4, r5, r6, lr}
 8001f36:	4d0d      	ldr	r5, [pc, #52]	; (8001f6c <__libc_init_array+0x38>)
 8001f38:	4c0d      	ldr	r4, [pc, #52]	; (8001f70 <__libc_init_array+0x3c>)
 8001f3a:	1b64      	subs	r4, r4, r5
 8001f3c:	10a4      	asrs	r4, r4, #2
 8001f3e:	2600      	movs	r6, #0
 8001f40:	42a6      	cmp	r6, r4
 8001f42:	d109      	bne.n	8001f58 <__libc_init_array+0x24>
 8001f44:	4d0b      	ldr	r5, [pc, #44]	; (8001f74 <__libc_init_array+0x40>)
 8001f46:	4c0c      	ldr	r4, [pc, #48]	; (8001f78 <__libc_init_array+0x44>)
 8001f48:	f000 f818 	bl	8001f7c <_init>
 8001f4c:	1b64      	subs	r4, r4, r5
 8001f4e:	10a4      	asrs	r4, r4, #2
 8001f50:	2600      	movs	r6, #0
 8001f52:	42a6      	cmp	r6, r4
 8001f54:	d105      	bne.n	8001f62 <__libc_init_array+0x2e>
 8001f56:	bd70      	pop	{r4, r5, r6, pc}
 8001f58:	f855 3b04 	ldr.w	r3, [r5], #4
 8001f5c:	4798      	blx	r3
 8001f5e:	3601      	adds	r6, #1
 8001f60:	e7ee      	b.n	8001f40 <__libc_init_array+0xc>
 8001f62:	f855 3b04 	ldr.w	r3, [r5], #4
 8001f66:	4798      	blx	r3
 8001f68:	3601      	adds	r6, #1
 8001f6a:	e7f2      	b.n	8001f52 <__libc_init_array+0x1e>
 8001f6c:	08001fc4 	.word	0x08001fc4
 8001f70:	08001fc4 	.word	0x08001fc4
 8001f74:	08001fc4 	.word	0x08001fc4
 8001f78:	08001fc8 	.word	0x08001fc8

08001f7c <_init>:
 8001f7c:	b5f8      	push	{r3, r4, r5, r6, r7, lr}
 8001f7e:	bf00      	nop
 8001f80:	bcf8      	pop	{r3, r4, r5, r6, r7}
 8001f82:	bc08      	pop	{r3}
 8001f84:	469e      	mov	lr, r3
 8001f86:	4770      	bx	lr

08001f88 <_fini>:
 8001f88:	b5f8      	push	{r3, r4, r5, r6, r7, lr}
 8001f8a:	bf00      	nop
 8001f8c:	bcf8      	pop	{r3, r4, r5, r6, r7}
 8001f8e:	bc08      	pop	{r3}
 8001f90:	469e      	mov	lr, r3
 8001f92:	4770      	bx	lr
